
empos_boot-elf32:     file format elf32-littlearm

Disassembly of section .text:

a3e00000 <_start>:
a3e00000:	ea000006 	b	a3e00020 <reset>
a3e00004:	ea0000a0 	b	a3e0028c <Data_Abort>
a3e00008:	e59ff030 	ldr	pc, [pc, #30]	; a3e00040 <reset+0x20>
a3e0000c:	ea00009e 	b	a3e0028c <Data_Abort>
a3e00010:	ea00009d 	b	a3e0028c <Data_Abort>
a3e00014:	ea00009c 	b	a3e0028c <Data_Abort>
a3e00018:	e59ff024 	ldr	pc, [pc, #24]	; a3e00044 <reset+0x24>
a3e0001c:	ea00009a 	b	a3e0028c <Data_Abort>

a3e00020 <reset>:
a3e00020:	e3a000d3 	mov	r0, #211	; 0xd3
a3e00024:	e121f000 	msr	CPSR_c, r0
a3e00028:	e3a00078 	mov	r0, #120	; 0x78
a3e0002c:	ee010f10 	mcr	15, 0, r0, cr1, cr0, {0}
a3e00030:	e3a00000 	mov	r0, #0	; 0x0
a3e00034:	ee080f17 	mcr	15, 0, r0, cr8, cr7, {0}
a3e00038:	ee070f17 	mcr	15, 0, r0, cr7, cr7, {0}
a3e0003c:	ee070f9a 	mcr	15, 0, r0, cr7, cr10, {4}
a3e00040:	01234567 	teqeq	r3, r7, ror #10
a3e00044:	12345678 	eornes	r5, r4, #125829120	; 0x7800000
a3e00048:	e1a00000 	nop			(mov r0,r0)
a3e0004c:	e3e00000 	mvn	r0, #0	; 0x0
a3e00050:	ee030f10 	mcr	15, 0, r0, cr3, cr0, {0}
a3e00054:	e59fc230 	ldr	ip, [pc, #230]	; a3e0028c <Data_Abort>
a3e00058:	e3a00000 	mov	r0, #0	; 0x0
a3e0005c:	e58c0004 	str	r0, [ip, #4]
a3e00060:	e58c0008 	str	r0, [ip, #8]
a3e00064:	e59fc224 	ldr	ip, [pc, #224]	; a3e00290 <Data_Abort+0x4>
a3e00068:	e59f0224 	ldr	r0, [pc, #224]	; a3e00294 <Data_Abort+0x8>
a3e0006c:	e58c0004 	str	r0, [ip, #4]
a3e00070:	e3a00020 	mov	r0, #32	; 0x20
a3e00074:	e58c0008 	str	r0, [ip, #8]
a3e00078:	e59f0218 	ldr	r0, [pc, #218]	; a3e00298 <Data_Abort+0xc>
a3e0007c:	e58c0000 	str	r0, [ip]
a3e00080:	e3a01003 	mov	r1, #3	; 0x3
a3e00084:	ee061e10 	mcr	14, 0, r1, cr6, cr0, {0}
a3e00088:	e59f120c 	ldr	r1, [pc, #20c]	; a3e0029c <Data_Abort+0x10>
a3e0008c:	e3a00000 	mov	r0, #0	; 0x0
a3e00090:	e5810000 	str	r0, [r1]
a3e00094:	e3a00c03 	mov	r0, #768	; 0x300

a3e00098 <wait_for_clock>:
a3e00098:	e5912000 	ldr	r2, [r1]
a3e0009c:	e1500002 	cmp	r0, r2
a3e000a0:	1afffffc 	bne	a3e00098 <wait_for_clock>

a3e000a4 <init_gpio>:
a3e000a4:	e59fc1f4 	ldr	ip, [pc, #1f4]	; a3e002a0 <Data_Abort+0x14>
a3e000a8:	e3a00102 	mov	r0, #-2147483648	; 0x80000000
a3e000ac:	e58c0054 	str	r0, [ip, #84]
a3e000b0:	e59f01ec 	ldr	r0, [pc, #1ec]	; a3e002a4 <Data_Abort+0x18>
a3e000b4:	e58c0058 	str	r0, [ip, #88]
a3e000b8:	e59f01e8 	ldr	r0, [pc, #1e8]	; a3e002a8 <Data_Abort+0x1c>
a3e000bc:	e58c005c 	str	r0, [ip, #92]
a3e000c0:	e59f01e4 	ldr	r0, [pc, #1e4]	; a3e002ac <Data_Abort+0x20>
a3e000c4:	e58c0060 	str	r0, [ip, #96]
a3e000c8:	e59f01e0 	ldr	r0, [pc, #1e0]	; a3e002b0 <Data_Abort+0x24>
a3e000cc:	e58c0064 	str	r0, [ip, #100]
a3e000d0:	e3a00002 	mov	r0, #2	; 0x2
a3e000d4:	e58c0068 	str	r0, [ip, #104]
a3e000d8:	e59f01d4 	ldr	r0, [pc, #1d4]	; a3e002b4 <Data_Abort+0x28>
a3e000dc:	e58c0018 	str	r0, [ip, #24]
a3e000e0:	e59f01d0 	ldr	r0, [pc, #1d0]	; a3e002b8 <Data_Abort+0x2c>
a3e000e4:	e58c001c 	str	r0, [ip, #28]
a3e000e8:	e3a00907 	mov	r0, #114688	; 0x1c000
a3e000ec:	e58c0020 	str	r0, [ip, #32]
a3e000f0:	e59f01c4 	ldr	r0, [pc, #1c4]	; a3e002bc <Data_Abort+0x30>
a3e000f4:	e58c0024 	str	r0, [ip, #36]
a3e000f8:	e59f01c0 	ldr	r0, [pc, #1c0]	; a3e002c0 <Data_Abort+0x34>
a3e000fc:	e58c0028 	str	r0, [ip, #40]
a3e00100:	e59f01bc 	ldr	r0, [pc, #1bc]	; a3e002c4 <Data_Abort+0x38>
a3e00104:	e58c002c 	str	r0, [ip, #44]
a3e00108:	e59f01b8 	ldr	r0, [pc, #1b8]	; a3e002c8 <Data_Abort+0x3c>
a3e0010c:	e58c000c 	str	r0, [ip, #12]
a3e00110:	e59f01b4 	ldr	r0, [pc, #1b4]	; a3e002cc <Data_Abort+0x40>
a3e00114:	e58c0010 	str	r0, [ip, #16]
a3e00118:	e59f01b0 	ldr	r0, [pc, #1b0]	; a3e002d0 <Data_Abort+0x44>
a3e0011c:	e58c0014 	str	r0, [ip, #20]
a3e00120:	e59f11ac 	ldr	r1, [pc, #1ac]	; a3e002d4 <Data_Abort+0x48>
a3e00124:	e3a02037 	mov	r2, #55	; 0x37
a3e00128:	e5812000 	str	r2, [r1]

a3e0012c <init_sdram>:
a3e0012c:	e3a0c312 	mov	ip, #1207959552	; 0x48000000
a3e00130:	e59f01a0 	ldr	r0, [pc, #1a0]	; a3e002d8 <Data_Abort+0x4c>
a3e00134:	e58c0008 	str	r0, [ip, #8]
a3e00138:	e59f019c 	ldr	r0, [pc, #19c]	; a3e002dc <Data_Abort+0x50>
a3e0013c:	e58c000c 	str	r0, [ip, #12]
a3e00140:	e59c000c 	ldr	r0, [ip, #12]
a3e00144:	e59f0194 	ldr	r0, [pc, #194]	; a3e002e0 <Data_Abort+0x54>
a3e00148:	e58c0010 	str	r0, [ip, #16]
a3e0014c:	e59c0010 	ldr	r0, [ip, #16]
a3e00150:	e3a00001 	mov	r0, #1	; 0x1
a3e00154:	e58c0014 	str	r0, [ip, #20]
a3e00158:	e59f0184 	ldr	r0, [pc, #184]	; a3e002e4 <Data_Abort+0x58>
a3e0015c:	e58c0028 	str	r0, [ip, #40]
a3e00160:	e59f017c 	ldr	r0, [pc, #17c]	; a3e002e4 <Data_Abort+0x58>
a3e00164:	e58c002c 	str	r0, [ip, #44]
a3e00168:	e59f0174 	ldr	r0, [pc, #174]	; a3e002e4 <Data_Abort+0x58>
a3e0016c:	e58c0030 	str	r0, [ip, #48]
a3e00170:	e59f016c 	ldr	r0, [pc, #16c]	; a3e002e4 <Data_Abort+0x58>
a3e00174:	e58c0034 	str	r0, [ip, #52]
a3e00178:	e59f0168 	ldr	r0, [pc, #168]	; a3e002e8 <Data_Abort+0x5c>
a3e0017c:	e58c0038 	str	r0, [ip, #56]
a3e00180:	e59f0160 	ldr	r0, [pc, #160]	; a3e002e8 <Data_Abort+0x5c>
a3e00184:	e58c003c 	str	r0, [ip, #60]
a3e00188:	e59f015c 	ldr	r0, [pc, #15c]	; a3e002ec <Data_Abort+0x60>
a3e0018c:	e59c3004 	ldr	r3, [ip, #4]
a3e00190:	e59f1158 	ldr	r1, [pc, #158]	; a3e002f0 <Data_Abort+0x64>
a3e00194:	e0000001 	and	r0, r0, r1
a3e00198:	e1c33001 	bic	r3, r3, r1
a3e0019c:	e3c3350e 	bic	r3, r3, #58720256	; 0x3800000
a3e001a0:	e1833000 	orr	r3, r3, r0
a3e001a4:	e58c3004 	str	r3, [ip, #4]
a3e001a8:	e59f013c 	ldr	r0, [pc, #13c]	; a3e002ec <Data_Abort+0x60>
a3e001ac:	e3a01af6 	mov	r1, #1007616	; 0xf6000
a3e001b0:	e1833000 	orr	r3, r3, r0
a3e001b4:	e58c3004 	str	r3, [ip, #4]
a3e001b8:	e59c3004 	ldr	r3, [ip, #4]
a3e001bc:	e3c33501 	bic	r3, r3, #4194304	; 0x400000
a3e001c0:	e58c3004 	str	r3, [ip, #4]
a3e001c4:	e59f0120 	ldr	r0, [pc, #120]	; a3e002ec <Data_Abort+0x60>
a3e001c8:	e59f1124 	ldr	r1, [pc, #124]	; a3e002f4 <Data_Abort+0x68>
a3e001cc:	e0000001 	and	r0, r0, r1
a3e001d0:	e1833000 	orr	r3, r3, r0
a3e001d4:	e58c3004 	str	r3, [ip, #4]
a3e001d8:	e1a00000 	nop			(mov r0,r0)
a3e001dc:	e1a00000 	nop			(mov r0,r0)
a3e001e0:	e59f0110 	ldr	r0, [pc, #110]	; a3e002f8 <Data_Abort+0x6c>
a3e001e4:	e3c00003 	bic	r0, r0, #3	; 0x3
a3e001e8:	e3c00803 	bic	r0, r0, #196608	; 0x30000
a3e001ec:	e3c00004 	bic	r0, r0, #4	; 0x4
a3e001f0:	e58c0000 	str	r0, [ip]
a3e001f4:	e59f00a0 	ldr	r0, [pc, #a0]	; a3e0029c <Data_Abort+0x10>
a3e001f8:	e3a01000 	mov	r1, #0	; 0x0
a3e001fc:	e5801000 	str	r1, [r0]
a3e00200:	e3a04c03 	mov	r4, #768	; 0x300

a3e00204 <sdram_dly>:
a3e00204:	e5901000 	ldr	r1, [r0]
a3e00208:	e1540001 	cmp	r4, r1
a3e0020c:	cafffffc 	bgt	a3e00204 <sdram_dly>
a3e00210:	e59f00e4 	ldr	r0, [pc, #e4]	; a3e002fc <Data_Abort+0x70>
a3e00214:	e5800000 	str	r0, [r0]
a3e00218:	e5800000 	str	r0, [r0]
a3e0021c:	e5800000 	str	r0, [r0]
a3e00220:	e5800000 	str	r0, [r0]
a3e00224:	e5800000 	str	r0, [r0]
a3e00228:	e5800000 	str	r0, [r0]
a3e0022c:	e5800000 	str	r0, [r0]
a3e00230:	e5800000 	str	r0, [r0]
a3e00234:	e59c0000 	ldr	r0, [ip]
a3e00238:	e3800003 	orr	r0, r0, #3	; 0x3
a3e0023c:	e58c0000 	str	r0, [ip]
a3e00240:	e3a00000 	mov	r0, #0	; 0x0
a3e00244:	e58c0040 	str	r0, [ip, #64]
a3e00248:	e59c0004 	ldr	r0, [ip, #4]
a3e0024c:	e59fb0ac 	ldr	fp, [pc, #ac]	; a3e00300 <Data_Abort+0x74>
a3e00250:	e000000b 	and	r0, r0, fp
a3e00254:	e58c0004 	str	r0, [ip, #4]
a3e00258:	e3a00000 	mov	r0, #0	; 0x0
a3e0025c:	e59f10a0 	ldr	r1, [pc, #a0]	; a3e00304 <Data_Abort+0x78>
a3e00260:	e3a02903 	mov	r2, #49152	; 0xc000

a3e00264 <rom2ram>:
a3e00264:	e5903000 	ldr	r3, [r0]
a3e00268:	e5813000 	str	r3, [r1]
a3e0026c:	e2800004 	add	r0, r0, #4	; 0x4
a3e00270:	e2811004 	add	r1, r1, #4	; 0x4
a3e00274:	e2522004 	subs	r2, r2, #4	; 0x4
a3e00278:	1afffff9 	bne	a3e00264 <rom2ram>
a3e0027c:	e59fd084 	ldr	sp, [pc, #84]	; a3e00308 <Data_Abort+0x7c>
a3e00280:	e59f0084 	ldr	r0, [pc, #84]	; a3e0030c <Data_Abort+0x80>
a3e00284:	e1a0f000 	mov	pc, r0

a3e00288 <boot_falut>:
a3e00288:	eaffff64 	b	a3e00020 <reset>

a3e0028c <Data_Abort>:
a3e0028c:	40d00000 	sbcmis	r0, r0, r0
a3e00290:	41300000 	teqmi	r0, r0
a3e00294:	000118cc 	andeq	r1, r1, ip, asr #17
a3e00298:	00000241 	andeq	r0, r0, r1, asr #4
a3e0029c:	40a00010 	adcmi	r0, r0, r0, lsl r0
a3e002a0:	40e00000 	rscmi	r0, r0, r0
a3e002a4:	a5000010 	strge	r0, [r0, -#16]
a3e002a8:	99908018 	ldmlsib	r0, {r3, r4, pc}
a3e002ac:	aaa5aaaa 	bge	a276ad5c <_start-0x16952a4>
a3e002b0:	aaa0000a 	bge	a26002e0 <_start-0x17ffd20>
a3e002b4:	08408030 	stmeqda	r0, {r4, r5, pc}^
a3e002b8:	00bfa882 	adceqs	sl, pc, r2, lsl #17
a3e002bc:	c1031100 	tstgt	r3, r0, lsl #2
a3e002c0:	fc400301 	stc2l	3, cr0, [r0], -#4
a3e002c4:	00003fff 	streqd	r3, [r0], -pc
a3e002c8:	cbc39300 	blgt	a2ee4ed0 <_start-0xf1b130>
a3e002cc:	fcffab83 	ldc2l	11, cr10, [pc], #524
a3e002d0:	0001ffff 	streqd	pc, [r1], -pc
a3e002d4:	40f00004 	rscmis	r0, r0, r4
a3e002d8:	7ff42bf0 	swivc	0x00f42bf0
a3e002dc:	7ff17ff4 	swivc	0x00f17ff4
a3e002e0:	7ffc7ff4 	swivc	0x00fc7ff4
a3e002e4:	00010504 	andeq	r0, r1, r4, lsl #10
a3e002e8:	00004715 	andeq	r4, r0, r5, lsl r7
a3e002ec:	000bc018 	andeq	ip, fp, r8, lsl r0
a3e002f0:	00000fff 	streqd	r0, [r0], -pc
a3e002f4:	03809000 	orreq	r9, r0, #0	; 0x0
a3e002f8:	00001acb 	andeq	r1, r0, fp, asr #21
a3e002fc:	a3d00000 	bicges	r0, r0, #0	; 0x0
a3e00300:	ffefffff 	swinv	0x00efffff
a3e00304:	a3e00000 	mvnge	r0, #0	; 0x0
a3e00308:	a3f00000 	mvnges	r0, #0	; 0x0
a3e0030c:	a3e05200 	mvnge	r5, #0	; 0x0

a3e00310 <SerialInit>:
a3e00310:	e59f004c 	ldr	r0, [pc, #4c]	; a3e00364 <SerialInit+0x54>
a3e00314:	e59f204c 	ldr	r2, [pc, #4c]	; a3e00368 <SerialInit+0x58>
a3e00318:	e59f104c 	ldr	r1, [pc, #4c]	; a3e0036c <SerialInit+0x5c>
a3e0031c:	e3a03003 	mov	r3, #3	; 0x3
a3e00320:	e5803000 	str	r3, [r0]
a3e00324:	e2833004 	add	r3, r3, #4	; 0x4
a3e00328:	e5823000 	str	r3, [r2]
a3e0032c:	e3a02040 	mov	r2, #64	; 0x40
a3e00330:	e5812000 	str	r2, [r1]
a3e00334:	e5903000 	ldr	r3, [r0]
a3e00338:	e2411004 	sub	r1, r1, #4	; 0x4
a3e0033c:	e3833080 	orr	r3, r3, #128	; 0x80
a3e00340:	e5803000 	str	r3, [r0]
a3e00344:	e3a03008 	mov	r3, #8	; 0x8
a3e00348:	e5813000 	str	r3, [r1]
a3e0034c:	e5902000 	ldr	r2, [r0]
a3e00350:	e3c22080 	bic	r2, r2, #128	; 0x80
a3e00354:	e5802000 	str	r2, [r0]
a3e00358:	e59f3010 	ldr	r3, [pc, #10]	; a3e00370 <SerialInit+0x60>
a3e0035c:	e5932000 	ldr	r2, [r3]
a3e00360:	e1a0f00e 	mov	pc, lr
a3e00364:	4010000c 	andmis	r0, r0, ip
a3e00368:	40100008 	andmis	r0, r0, r8
a3e0036c:	40100004 	andmis	r0, r0, r4
a3e00370:	40100014 	andmis	r0, r0, r4, lsl r0

a3e00374 <SerialInputString>:
a3e00374:	e92d47f0 	stmdb	sp!, {r4, r5, r6, r7, r8, r9, sl, lr}
a3e00378:	e3a0a001 	mov	sl, #1	; 0x1
a3e0037c:	e1a05000 	mov	r5, r0
a3e00380:	e2411001 	sub	r1, r1, #1	; 0x1
a3e00384:	e24dd010 	sub	sp, sp, #16	; 0x10
a3e00388:	e28d4008 	add	r4, sp, #8	; 0x8
a3e0038c:	e1a00004 	mov	r0, r4
a3e00390:	e88d0006 	stmia	sp, {r1, r2}
a3e00394:	eb000125 	bl	a3e00830 <GetTime>
a3e00398:	e3a06000 	mov	r6, #0	; 0x0
a3e0039c:	e1a07006 	mov	r7, r6
a3e003a0:	e59d3000 	ldr	r3, [sp]
a3e003a4:	e1a09000 	mov	r9, r0
a3e003a8:	e1560003 	cmp	r6, r3
a3e003ac:	aa00002f 	bge	a3e00470 <SerialInputString+0xfc>
a3e003b0:	e59f209c 	ldr	r2, [pc, #9c]	; a3e00454 <SerialInputString+0xe0>
a3e003b4:	e5923000 	ldr	r3, [r2]
a3e003b8:	e2133001 	ands	r3, r3, #1	; 0x1
a3e003bc:	1a00000d 	bne	a3e003f8 <SerialInputString+0x84>
a3e003c0:	e1a08003 	mov	r8, r3
a3e003c4:	e1a04002 	mov	r4, r2
a3e003c8:	e28d0008 	add	r0, sp, #8	; 0x8
a3e003cc:	eb000117 	bl	a3e00830 <GetTime>
a3e003d0:	e59d3004 	ldr	r3, [sp, #4]
a3e003d4:	e0690000 	rsb	r0, r9, r0
a3e003d8:	e1500003 	cmp	r0, r3
a3e003dc:	9a000002 	bls	a3e003ec <SerialInputString+0x78>
a3e003e0:	e1a00006 	mov	r0, r6
a3e003e4:	e7c58007 	strb	r8, [r5, r7]
a3e003e8:	ea000021 	b	a3e00474 <SerialInputString+0x100>
a3e003ec:	e5943000 	ldr	r3, [r4]
a3e003f0:	e3130001 	tst	r3, #1	; 0x1
a3e003f4:	0afffff3 	beq	a3e003c8 <SerialInputString+0x54>
a3e003f8:	e28d000f 	add	r0, sp, #15	; 0xf
a3e003fc:	eb0000ff 	bl	a3e00800 <GetChar>
a3e00400:	e3500000 	cmp	r0, #0	; 0x0
a3e00404:	1a000002 	bne	a3e00414 <SerialInputString+0xa0>
a3e00408:	e7c50007 	strb	r0, [r5, r7]
a3e0040c:	e5dd000f 	ldrb	r0, [sp, #15]
a3e00410:	ea000017 	b	a3e00474 <SerialInputString+0x100>
a3e00414:	e35a0001 	cmp	sl, #1	; 0x1
a3e00418:	1a000004 	bne	a3e00430 <SerialInputString+0xbc>
a3e0041c:	e5dd300f 	ldrb	r3, [sp, #15]
a3e00420:	e353000d 	cmp	r3, #13	; 0xd
a3e00424:	0a000001 	beq	a3e00430 <SerialInputString+0xbc>
a3e00428:	e353000a 	cmp	r3, #10	; 0xa
a3e0042c:	13a0a000 	movne	sl, #0	; 0x0
a3e00430:	e35a0000 	cmp	sl, #0	; 0x0
a3e00434:	1a00000a 	bne	a3e00464 <SerialInputString+0xf0>
a3e00438:	e5dd300f 	ldrb	r3, [sp, #15]
a3e0043c:	e353000a 	cmp	r3, #10	; 0xa
a3e00440:	1353000d 	cmpne	r3, #13	; 0xd
a3e00444:	1a000003 	bne	a3e00458 <SerialInputString+0xe4>
a3e00448:	e1a00006 	mov	r0, r6
a3e0044c:	e7c5a007 	strb	sl, [r5, r7]
a3e00450:	ea000007 	b	a3e00474 <SerialInputString+0x100>
a3e00454:	40100014 	andmis	r0, r0, r4, lsl r0
a3e00458:	e7c53007 	strb	r3, [r5, r7]
a3e0045c:	e2877001 	add	r7, r7, #1	; 0x1
a3e00460:	e2866001 	add	r6, r6, #1	; 0x1
a3e00464:	e59d3000 	ldr	r3, [sp]
a3e00468:	e1560003 	cmp	r6, r3
a3e0046c:	baffffcf 	blt	a3e003b0 <SerialInputString+0x3c>
a3e00470:	e1a00006 	mov	r0, r6
a3e00474:	e28dd010 	add	sp, sp, #16	; 0x10
a3e00478:	e8bd87f0 	ldmia	sp!, {r4, r5, r6, r7, r8, r9, sl, pc}

a3e0047c <UUDecode>:
a3e0047c:	e92d45f0 	stmdb	sp!, {r4, r5, r6, r7, r8, sl, lr}
a3e00480:	e1a08000 	mov	r8, r0
a3e00484:	e1a07001 	mov	r7, r1
a3e00488:	e3a04000 	mov	r4, #0	; 0x0
a3e0048c:	e1a0a004 	mov	sl, r4
a3e00490:	e1a05004 	mov	r5, r4
a3e00494:	e24ddb01 	sub	sp, sp, #1024	; 0x400
a3e00498:	e1a0600d 	mov	r6, sp
a3e0049c:	e1a00006 	mov	r0, r6
a3e004a0:	e3a01b01 	mov	r1, #1024	; 0x400
a3e004a4:	e3a02006 	mov	r2, #6	; 0x6
a3e004a8:	ebffffb1 	bl	a3e00374 <SerialInputString>
a3e004ac:	e1a03005 	mov	r3, r5
a3e004b0:	e2855001 	add	r5, r5, #1	; 0x1
a3e004b4:	e353000a 	cmp	r3, #10	; 0xa
a3e004b8:	e3e00007 	mvn	r0, #7	; 0x7
a3e004bc:	ca0000a1 	bgt	a3e00748 <UUDecode+0x2cc>
a3e004c0:	e1a00006 	mov	r0, r6
a3e004c4:	e59f1270 	ldr	r1, [pc, #270]	; a3e0073c <UUDecode+0x2c0>
a3e004c8:	e3a02006 	mov	r2, #6	; 0x6
a3e004cc:	eb0001b4 	bl	a3e00ba4 <StrNCmp>
a3e004d0:	e3500000 	cmp	r0, #0	; 0x0
a3e004d4:	1afffff0 	bne	a3e0049c <UUDecode+0x20>
a3e004d8:	ea000076 	b	a3e006b8 <UUDecode+0x23c>
a3e004dc:	e2861001 	add	r1, r6, #1	; 0x1
a3e004e0:	e35c0002 	cmp	ip, #2	; 0x2
a3e004e4:	da000029 	ble	a3e00590 <UUDecode+0x114>
a3e004e8:	e5d12000 	ldrb	r2, [r1]
a3e004ec:	e2423020 	sub	r3, r2, #32	; 0x20
a3e004f0:	e3530040 	cmp	r3, #64	; 0x40
a3e004f4:	8a00005a 	bhi	a3e00664 <UUDecode+0x1e8>
a3e004f8:	e5d13001 	ldrb	r3, [r1, #1]
a3e004fc:	e2433020 	sub	r3, r3, #32	; 0x20
a3e00500:	e3530040 	cmp	r3, #64	; 0x40
a3e00504:	8a000056 	bhi	a3e00664 <UUDecode+0x1e8>
a3e00508:	e5d13002 	ldrb	r3, [r1, #2]
a3e0050c:	e2433020 	sub	r3, r3, #32	; 0x20
a3e00510:	e3530040 	cmp	r3, #64	; 0x40
a3e00514:	8a000052 	bhi	a3e00664 <UUDecode+0x1e8>
a3e00518:	e5d13003 	ldrb	r3, [r1, #3]
a3e0051c:	e2433020 	sub	r3, r3, #32	; 0x20
a3e00520:	e3530040 	cmp	r3, #64	; 0x40
a3e00524:	8a00004e 	bhi	a3e00664 <UUDecode+0x1e8>
a3e00528:	e2422020 	sub	r2, r2, #32	; 0x20
a3e0052c:	e5d13001 	ldrb	r3, [r1, #1]
a3e00530:	e202203f 	and	r2, r2, #63	; 0x3f
a3e00534:	e2433020 	sub	r3, r3, #32	; 0x20
a3e00538:	e203303f 	and	r3, r3, #63	; 0x3f
a3e0053c:	e1a03243 	mov	r3, r3, asr #4
a3e00540:	e1832102 	orr	r2, r3, r2, lsl #2
a3e00544:	e1540007 	cmp	r4, r7
a3e00548:	b7c82004 	strltb	r2, [r8, r4]
a3e0054c:	b2844001 	addlt	r4, r4, #1	; 0x1
a3e00550:	e5d12001 	ldrb	r2, [r1, #1]
a3e00554:	e5d13002 	ldrb	r3, [r1, #2]
a3e00558:	e2422020 	sub	r2, r2, #32	; 0x20
a3e0055c:	e202203f 	and	r2, r2, #63	; 0x3f
a3e00560:	e2433020 	sub	r3, r3, #32	; 0x20
a3e00564:	e203303f 	and	r3, r3, #63	; 0x3f
a3e00568:	e1a03143 	mov	r3, r3, asr #2
a3e0056c:	e1833202 	orr	r3, r3, r2, lsl #4
a3e00570:	e20320ff 	and	r2, r3, #255	; 0xff
a3e00574:	e1540007 	cmp	r4, r7
a3e00578:	b7c82004 	strltb	r2, [r8, r4]
a3e0057c:	b2844001 	addlt	r4, r4, #1	; 0x1
a3e00580:	e5d12002 	ldrb	r2, [r1, #2]
a3e00584:	e5d13003 	ldrb	r3, [r1, #3]
a3e00588:	e2422020 	sub	r2, r2, #32	; 0x20
a3e0058c:	ea00003d 	b	a3e00688 <UUDecode+0x20c>
a3e00590:	e35c0000 	cmp	ip, #0	; 0x0
a3e00594:	da000011 	ble	a3e005e0 <UUDecode+0x164>
a3e00598:	e5d12000 	ldrb	r2, [r1]
a3e0059c:	e2423020 	sub	r3, r2, #32	; 0x20
a3e005a0:	e3530040 	cmp	r3, #64	; 0x40
a3e005a4:	8a00002e 	bhi	a3e00664 <UUDecode+0x1e8>
a3e005a8:	e5d13001 	ldrb	r3, [r1, #1]
a3e005ac:	e2433020 	sub	r3, r3, #32	; 0x20
a3e005b0:	e3530040 	cmp	r3, #64	; 0x40
a3e005b4:	8a00002a 	bhi	a3e00664 <UUDecode+0x1e8>
a3e005b8:	e2422020 	sub	r2, r2, #32	; 0x20
a3e005bc:	e5d13001 	ldrb	r3, [r1, #1]
a3e005c0:	e202203f 	and	r2, r2, #63	; 0x3f
a3e005c4:	e2433020 	sub	r3, r3, #32	; 0x20
a3e005c8:	e203303f 	and	r3, r3, #63	; 0x3f
a3e005cc:	e1a03243 	mov	r3, r3, asr #4
a3e005d0:	e1832102 	orr	r2, r3, r2, lsl #2
a3e005d4:	e1540007 	cmp	r4, r7
a3e005d8:	b7c82004 	strltb	r2, [r8, r4]
a3e005dc:	b2844001 	addlt	r4, r4, #1	; 0x1
a3e005e0:	e35c0001 	cmp	ip, #1	; 0x1
a3e005e4:	da000012 	ble	a3e00634 <UUDecode+0x1b8>
a3e005e8:	e5d12001 	ldrb	r2, [r1, #1]
a3e005ec:	e2423020 	sub	r3, r2, #32	; 0x20
a3e005f0:	e3530040 	cmp	r3, #64	; 0x40
a3e005f4:	8a00001a 	bhi	a3e00664 <UUDecode+0x1e8>
a3e005f8:	e5d13002 	ldrb	r3, [r1, #2]
a3e005fc:	e2433020 	sub	r3, r3, #32	; 0x20
a3e00600:	e3530040 	cmp	r3, #64	; 0x40
a3e00604:	8a000016 	bhi	a3e00664 <UUDecode+0x1e8>
a3e00608:	e2422020 	sub	r2, r2, #32	; 0x20
a3e0060c:	e5d13002 	ldrb	r3, [r1, #2]
a3e00610:	e202203f 	and	r2, r2, #63	; 0x3f
a3e00614:	e2433020 	sub	r3, r3, #32	; 0x20
a3e00618:	e203303f 	and	r3, r3, #63	; 0x3f
a3e0061c:	e1a03143 	mov	r3, r3, asr #2
a3e00620:	e1833202 	orr	r3, r3, r2, lsl #4
a3e00624:	e20320ff 	and	r2, r3, #255	; 0xff
a3e00628:	e1540007 	cmp	r4, r7
a3e0062c:	b7c82004 	strltb	r2, [r8, r4]
a3e00630:	b2844001 	addlt	r4, r4, #1	; 0x1
a3e00634:	e35c0002 	cmp	ip, #2	; 0x2
a3e00638:	da00001a 	ble	a3e006a8 <UUDecode+0x22c>
a3e0063c:	e5d12002 	ldrb	r2, [r1, #2]
a3e00640:	e2423020 	sub	r3, r2, #32	; 0x20
a3e00644:	e3530040 	cmp	r3, #64	; 0x40
a3e00648:	e1a00002 	mov	r0, r2
a3e0064c:	8a000004 	bhi	a3e00664 <UUDecode+0x1e8>
a3e00650:	e5d12003 	ldrb	r2, [r1, #3]
a3e00654:	e2423020 	sub	r3, r2, #32	; 0x20
a3e00658:	e3530040 	cmp	r3, #64	; 0x40
a3e0065c:	e1a03002 	mov	r3, r2
a3e00660:	9a000007 	bls	a3e00684 <UUDecode+0x208>
a3e00664:	e3a0000a 	mov	r0, #10	; 0xa
a3e00668:	eb00004a 	bl	a3e00798 <PutChar>
a3e0066c:	e1a00006 	mov	r0, r6
a3e00670:	eb000057 	bl	a3e007d4 <PutString>
a3e00674:	e3a0000a 	mov	r0, #10	; 0xa
a3e00678:	eb000046 	bl	a3e00798 <PutChar>
a3e0067c:	e3e00006 	mvn	r0, #6	; 0x6
a3e00680:	ea000030 	b	a3e00748 <UUDecode+0x2cc>
a3e00684:	e2402020 	sub	r2, r0, #32	; 0x20
a3e00688:	e202203f 	and	r2, r2, #63	; 0x3f
a3e0068c:	e2433020 	sub	r3, r3, #32	; 0x20
a3e00690:	e203303f 	and	r3, r3, #63	; 0x3f
a3e00694:	e1833302 	orr	r3, r3, r2, lsl #6
a3e00698:	e20320ff 	and	r2, r3, #255	; 0xff
a3e0069c:	e1540007 	cmp	r4, r7
a3e006a0:	b7c82004 	strltb	r2, [r8, r4]
a3e006a4:	b2844001 	addlt	r4, r4, #1	; 0x1
a3e006a8:	e2811004 	add	r1, r1, #4	; 0x4
a3e006ac:	e24cc003 	sub	ip, ip, #3	; 0x3
a3e006b0:	e35c0000 	cmp	ip, #0	; 0x0
a3e006b4:	caffff89 	bgt	a3e004e0 <UUDecode+0x64>
a3e006b8:	e1a00006 	mov	r0, r6
a3e006bc:	e3a01b01 	mov	r1, #1024	; 0x400
a3e006c0:	e3a02002 	mov	r2, #2	; 0x2
a3e006c4:	ebffff2a 	bl	a3e00374 <SerialInputString>
a3e006c8:	e3500000 	cmp	r0, #0	; 0x0
a3e006cc:	0a000018 	beq	a3e00734 <UUDecode+0x2b8>
a3e006d0:	e20a307f 	and	r3, sl, #127	; 0x7f
a3e006d4:	e28aa001 	add	sl, sl, #1	; 0x1
a3e006d8:	e3530000 	cmp	r3, #0	; 0x0
a3e006dc:	1a000001 	bne	a3e006e8 <UUDecode+0x26c>
a3e006e0:	e3a0002e 	mov	r0, #46	; 0x2e
a3e006e4:	eb00002b 	bl	a3e00798 <PutChar>
a3e006e8:	e5d63000 	ldrb	r3, [r6]
a3e006ec:	e2433020 	sub	r3, r3, #32	; 0x20
a3e006f0:	e203c03f 	and	ip, r3, #63	; 0x3f
a3e006f4:	e35c0000 	cmp	ip, #0	; 0x0
a3e006f8:	caffff77 	bgt	a3e004dc <UUDecode+0x60>
a3e006fc:	e3a0000a 	mov	r0, #10	; 0xa
a3e00700:	eb000024 	bl	a3e00798 <PutChar>
a3e00704:	e1a00006 	mov	r0, r6
a3e00708:	e3a01b01 	mov	r1, #1024	; 0x400
a3e0070c:	e3a02002 	mov	r2, #2	; 0x2
a3e00710:	ebffff17 	bl	a3e00374 <SerialInputString>
a3e00714:	e3500000 	cmp	r0, #0	; 0x0
a3e00718:	0a000005 	beq	a3e00734 <UUDecode+0x2b8>
a3e0071c:	e1a00006 	mov	r0, r6
a3e00720:	e59f1018 	ldr	r1, [pc, #18]	; a3e00740 <UUDecode+0x2c4>
a3e00724:	e3a02003 	mov	r2, #3	; 0x3
a3e00728:	eb00011d 	bl	a3e00ba4 <StrNCmp>
a3e0072c:	e3500000 	cmp	r0, #0	; 0x0
a3e00730:	0a000003 	beq	a3e00744 <UUDecode+0x2c8>
a3e00734:	e3e00008 	mvn	r0, #8	; 0x8
a3e00738:	ea000002 	b	a3e00748 <UUDecode+0x2cc>
a3e0073c:	a3e057c8 	mvnge	r5, #52428800	; 0x3200000
a3e00740:	a3e057d0 	mvnge	r5, #54525952	; 0x3400000
a3e00744:	e1a00004 	mov	r0, r4
a3e00748:	e28ddb01 	add	sp, sp, #1024	; 0x400
a3e0074c:	e8bd85f0 	ldmia	sp!, {r4, r5, r6, r7, r8, sl, pc}

a3e00750 <Download>:
a3e00750:	e92d4030 	stmdb	sp!, {r4, r5, lr}
a3e00754:	e1a05000 	mov	r5, r0
a3e00758:	e59f0030 	ldr	r0, [pc, #30]	; a3e00790 <Download+0x40>
a3e0075c:	e1a04001 	mov	r4, r1
a3e00760:	eb0002e2 	bl	a3e012f0 <printf>
a3e00764:	e1a00005 	mov	r0, r5
a3e00768:	e1a01004 	mov	r1, r4
a3e0076c:	ebffff42 	bl	a3e0047c <UUDecode>
a3e00770:	e1a03000 	mov	r3, r0
a3e00774:	e1a01003 	mov	r1, r3
a3e00778:	e59f0014 	ldr	r0, [pc, #14]	; a3e00794 <Download+0x44>
a3e0077c:	e3a04000 	mov	r4, #0	; 0x0
a3e00780:	e5843000 	str	r3, [r4]
a3e00784:	eb0002d9 	bl	a3e012f0 <printf>
a3e00788:	e1a00004 	mov	r0, r4
a3e0078c:	e8bd8030 	ldmia	sp!, {r4, r5, pc}
a3e00790:	a3e057d4 	mvnge	r5, #55574528	; 0x3500000
a3e00794:	a3e05808 	mvnge	r5, #524288	; 0x80000

a3e00798 <PutChar>:
a3e00798:	e92d4000 	stmdb	sp!, {lr}
a3e0079c:	e20000ff 	and	r0, r0, #255	; 0xff
a3e007a0:	e59f2024 	ldr	r2, [pc, #24]	; a3e007cc <PutChar+0x34>
a3e007a4:	e5923000 	ldr	r3, [r2]
a3e007a8:	e3130020 	tst	r3, #32	; 0x20
a3e007ac:	0afffffc 	beq	a3e007a4 <PutChar+0xc>
a3e007b0:	e59f3018 	ldr	r3, [pc, #18]	; a3e007d0 <PutChar+0x38>
a3e007b4:	e350000a 	cmp	r0, #10	; 0xa
a3e007b8:	e5830000 	str	r0, [r3]
a3e007bc:	18bd8000 	ldmneia	sp!, {pc}
a3e007c0:	e3a0000d 	mov	r0, #13	; 0xd
a3e007c4:	e8bd4000 	ldmia	sp!, {lr}
a3e007c8:	eafffff2 	b	a3e00798 <PutChar>
a3e007cc:	40100014 	andmis	r0, r0, r4, lsl r0
a3e007d0:	40100000 	andmis	r0, r0, r0

a3e007d4 <PutString>:
a3e007d4:	e92d4010 	stmdb	sp!, {r4, lr}
a3e007d8:	e1a04000 	mov	r4, r0
a3e007dc:	e5d43000 	ldrb	r3, [r4]
a3e007e0:	e3530000 	cmp	r3, #0	; 0x0
a3e007e4:	0a000004 	beq	a3e007fc <PutString+0x28>
a3e007e8:	e5d40000 	ldrb	r0, [r4]
a3e007ec:	ebffffe9 	bl	a3e00798 <PutChar>
a3e007f0:	e5f43001 	ldrb	r3, [r4, #1]!
a3e007f4:	e3530000 	cmp	r3, #0	; 0x0
a3e007f8:	1afffffa 	bne	a3e007e8 <PutString+0x14>
a3e007fc:	e8bd8010 	ldmia	sp!, {r4, pc}

a3e00800 <GetChar>:
a3e00800:	e59f3020 	ldr	r3, [pc, #20]	; a3e00828 <GetChar+0x28>
a3e00804:	e5932000 	ldr	r2, [r3]
a3e00808:	e1a01000 	mov	r1, r0
a3e0080c:	e2120001 	ands	r0, r2, #1	; 0x1
a3e00810:	01a0f00e 	moveq	pc, lr
a3e00814:	e2433014 	sub	r3, r3, #20	; 0x14
a3e00818:	e5932000 	ldr	r2, [r3]
a3e0081c:	e3a00001 	mov	r0, #1	; 0x1
a3e00820:	e5c12000 	strb	r2, [r1]
a3e00824:	e1a0f00e 	mov	pc, lr
a3e00828:	40100014 	andmis	r0, r0, r4, lsl r0

a3e0082c <InitTimer>:
a3e0082c:	e1a0f00e 	mov	pc, lr

a3e00830 <GetTime>:
a3e00830:	e59f300c 	ldr	r3, [pc, #c]	; a3e00844 <GetTime+0x14>
a3e00834:	e5932000 	ldr	r2, [r3]
a3e00838:	e5802000 	str	r2, [r0]
a3e0083c:	e1a00002 	mov	r0, r2
a3e00840:	e1a0f00e 	mov	pc, lr
a3e00844:	40900000 	addmis	r0, r0, r0

a3e00848 <msleep>:
a3e00848:	e92d4070 	stmdb	sp!, {r4, r5, r6, lr}
a3e0084c:	e1a06000 	mov	r6, r0
a3e00850:	e24dd004 	sub	sp, sp, #4	; 0x4
a3e00854:	e1a0400d 	mov	r4, sp
a3e00858:	e1a00004 	mov	r0, r4
a3e0085c:	ebfffff3 	bl	a3e00830 <GetTime>
a3e00860:	e1a05000 	mov	r5, r0
a3e00864:	e1a00004 	mov	r0, r4
a3e00868:	ebfffff0 	bl	a3e00830 <GetTime>
a3e0086c:	e0650000 	rsb	r0, r5, r0
a3e00870:	e1500006 	cmp	r0, r6
a3e00874:	9afffffa 	bls	a3e00864 <msleep+0x1c>
a3e00878:	e28dd004 	add	sp, sp, #4	; 0x4
a3e0087c:	e8bd8070 	ldmia	sp!, {r4, r5, r6, pc}

a3e00880 <clock>:
a3e00880:	e59f0000 	ldr	r0, [pc, #0]	; a3e00888 <clock+0x8>
a3e00884:	e1a0f00e 	mov	pc, lr
a3e00888:	40a00010 	adcmi	r0, r0, r0, lsl r0

a3e0088c <MemCpy32>:
a3e0088c:	e92d4070 	stmdb	sp!, {r4, r5, r6, lr}
a3e00890:	e1a06000 	mov	r6, r0
a3e00894:	e1a05001 	mov	r5, r1
a3e00898:	e2424001 	sub	r4, r2, #1	; 0x1
a3e0089c:	e3740001 	cmn	r4, #1	; 0x1
a3e008a0:	0a00000a 	beq	a3e008d0 <MemCpy32+0x44>
a3e008a4:	e1a03804 	mov	r3, r4, lsl #16
a3e008a8:	e1a03823 	mov	r3, r3, lsr #16
a3e008ac:	e3530000 	cmp	r3, #0	; 0x0
a3e008b0:	1a000001 	bne	a3e008bc <MemCpy32+0x30>
a3e008b4:	e3a0002e 	mov	r0, #46	; 0x2e
a3e008b8:	ebffffb6 	bl	a3e00798 <PutChar>
a3e008bc:	e2444001 	sub	r4, r4, #1	; 0x1
a3e008c0:	e4953004 	ldr	r3, [r5], #4
a3e008c4:	e3740001 	cmn	r4, #1	; 0x1
a3e008c8:	e4863004 	str	r3, [r6], #4
a3e008cc:	1afffff4 	bne	a3e008a4 <MemCpy32+0x18>
a3e008d0:	e8bd8070 	ldmia	sp!, {r4, r5, r6, pc}

a3e008d4 <MemCpy>:
a3e008d4:	e0802002 	add	r2, r0, r2
a3e008d8:	e1500002 	cmp	r0, r2
a3e008dc:	21a0f00e 	movcs	pc, lr
a3e008e0:	e4d13001 	ldrb	r3, [r1], #1
a3e008e4:	e4c03001 	strb	r3, [r0], #1
a3e008e8:	e1500002 	cmp	r0, r2
a3e008ec:	3afffffb 	bcc	a3e008e0 <MemCpy+0xc>
a3e008f0:	e1a0f00e 	mov	pc, lr

a3e008f4 <MemSet>:
a3e008f4:	e2422001 	sub	r2, r2, #1	; 0x1
a3e008f8:	e3720001 	cmn	r2, #1	; 0x1
a3e008fc:	e20110ff 	and	r1, r1, #255	; 0xff
a3e00900:	01a0f00e 	moveq	pc, lr
a3e00904:	e2422001 	sub	r2, r2, #1	; 0x1
a3e00908:	e3720001 	cmn	r2, #1	; 0x1
a3e0090c:	e4c01001 	strb	r1, [r0], #1
a3e00910:	1afffffb 	bne	a3e00904 <MemSet+0x10>
a3e00914:	e1a0f00e 	mov	pc, lr

a3e00918 <MemCmp>:
a3e00918:	e080c002 	add	ip, r0, r2
a3e0091c:	e150000c 	cmp	r0, ip
a3e00920:	2a000009 	bcs	a3e0094c <MemCmp+0x34>
a3e00924:	e4d02001 	ldrb	r2, [r0], #1
a3e00928:	e4d13001 	ldrb	r3, [r1], #1
a3e0092c:	e1520003 	cmp	r2, r3
a3e00930:	0afffff9 	beq	a3e0091c <MemCmp+0x4>
a3e00934:	e2400001 	sub	r0, r0, #1	; 0x1
a3e00938:	e2411001 	sub	r1, r1, #1	; 0x1
a3e0093c:	e5d03000 	ldrb	r3, [r0]
a3e00940:	e5d10000 	ldrb	r0, [r1]
a3e00944:	e0600003 	rsb	r0, r0, r3
a3e00948:	e1a0f00e 	mov	pc, lr
a3e0094c:	e3a00000 	mov	r0, #0	; 0x0
a3e00950:	e1a0f00e 	mov	pc, lr

a3e00954 <user_wait>:
a3e00954:	e3a03000 	mov	r3, #0	; 0x0
a3e00958:	e1530000 	cmp	r3, r0
a3e0095c:	21a0f00e 	movcs	pc, lr
a3e00960:	e2833001 	add	r3, r3, #1	; 0x1
a3e00964:	e1530000 	cmp	r3, r0
a3e00968:	3afffffc 	bcc	a3e00960 <user_wait+0xc>
a3e0096c:	e1a0f00e 	mov	pc, lr

a3e00970 <LCD_word>:
a3e00970:	e1a00800 	mov	r0, r0, lsl #16
a3e00974:	e1a00840 	mov	r0, r0, asr #16
a3e00978:	e1a01801 	mov	r1, r1, lsl #16
a3e0097c:	e59f300c 	ldr	r3, [pc, #c]	; a3e00990 <LCD_word+0x20>
a3e00980:	e1a01841 	mov	r1, r1, asr #16
a3e00984:	e7831100 	str	r1, [r3, r0, lsl #2]
a3e00988:	e3a00901 	mov	r0, #16384	; 0x4000
a3e0098c:	eafffff0 	b	a3e00954 <user_wait>
a3e00990:	10700000 	rsbnes	r0, r0, r0

a3e00994 <printLCD>:
a3e00994:	e92d41f0 	stmdb	sp!, {r4, r5, r6, r7, r8, lr}
a3e00998:	e1a08001 	mov	r8, r1
a3e0099c:	e2504000 	subs	r4, r0, #0	; 0x0
a3e009a0:	0a000002 	beq	a3e009b0 <printLCD+0x1c>
a3e009a4:	e3540001 	cmp	r4, #1	; 0x1
a3e009a8:	0a000007 	beq	a3e009cc <printLCD+0x38>
a3e009ac:	ea00000c 	b	a3e009e4 <printLCD+0x50>
a3e009b0:	e59f1088 	ldr	r1, [pc, #88]	; a3e00a40 <printLCD+0xac>
a3e009b4:	e1a00004 	mov	r0, r4
a3e009b8:	ebffffec 	bl	a3e00970 <LCD_word>
a3e009bc:	e1a00004 	mov	r0, r4
a3e009c0:	e3a01002 	mov	r1, #2	; 0x2
a3e009c4:	ebffffe9 	bl	a3e00970 <LCD_word>
a3e009c8:	ea000005 	b	a3e009e4 <printLCD+0x50>
a3e009cc:	e3a00000 	mov	r0, #0	; 0x0
a3e009d0:	e3a01d13 	mov	r1, #1216	; 0x4c0
a3e009d4:	ebffffe5 	bl	a3e00970 <LCD_word>
a3e009d8:	e3a00000 	mov	r0, #0	; 0x0
a3e009dc:	e3a010c0 	mov	r1, #192	; 0xc0
a3e009e0:	ebffffe2 	bl	a3e00970 <LCD_word>
a3e009e4:	e1a00008 	mov	r0, r8
a3e009e8:	eb000057 	bl	a3e00b4c <StrLen>
a3e009ec:	e3a06000 	mov	r6, #0	; 0x0
a3e009f0:	e1a07000 	mov	r7, r0
a3e009f4:	e1560007 	cmp	r6, r7
a3e009f8:	aa00000f 	bge	a3e00a3c <printLCD+0xa8>
a3e009fc:	e3a00a0f 	mov	r0, #61440	; 0xf000
a3e00a00:	e7d84006 	ldrb	r4, [r8, r6]
a3e00a04:	e2866001 	add	r6, r6, #1	; 0x1
a3e00a08:	e3845c05 	orr	r5, r4, #1280	; 0x500
a3e00a0c:	e3844c01 	orr	r4, r4, #256	; 0x100
a3e00a10:	ebffffcf 	bl	a3e00954 <user_wait>
a3e00a14:	e3a00001 	mov	r0, #1	; 0x1
a3e00a18:	e1a01005 	mov	r1, r5
a3e00a1c:	ebffffd3 	bl	a3e00970 <LCD_word>
a3e00a20:	e3a00001 	mov	r0, #1	; 0x1
a3e00a24:	e1a01004 	mov	r1, r4
a3e00a28:	ebffffd0 	bl	a3e00970 <LCD_word>
a3e00a2c:	e3a00a0f 	mov	r0, #61440	; 0xf000
a3e00a30:	ebffffc7 	bl	a3e00954 <user_wait>
a3e00a34:	e1560007 	cmp	r6, r7
a3e00a38:	baffffef 	blt	a3e009fc <printLCD+0x68>
a3e00a3c:	e8bd81f0 	ldmia	sp!, {r4, r5, r6, r7, r8, pc}
a3e00a40:	00000402 	andeq	r0, r0, r2, lsl #8

a3e00a44 <IoTest>:
a3e00a44:	e92d4000 	stmdb	sp!, {lr}
a3e00a48:	e3a00000 	mov	r0, #0	; 0x0
a3e00a4c:	e3a020ff 	mov	r2, #255	; 0xff
a3e00a50:	e59fe0a8 	ldr	lr, [pc, #a8]	; a3e00b00 <IoTest+0xbc>
a3e00a54:	e59f10a8 	ldr	r1, [pc, #a8]	; a3e00b04 <IoTest+0xc0>
a3e00a58:	e59f30a8 	ldr	r3, [pc, #a8]	; a3e00b08 <IoTest+0xc4>
a3e00a5c:	e3e0c000 	mvn	ip, #0	; 0x0
a3e00a60:	e5c32000 	strb	r2, [r3]
a3e00a64:	e1cec0b0 	strh	ip, [lr]
a3e00a68:	e28ee601 	add	lr, lr, #1048576	; 0x100000
a3e00a6c:	e1cec0b0 	strh	ip, [lr]
a3e00a70:	ebffffbe 	bl	a3e00970 <LCD_word>
a3e00a74:	e3a00000 	mov	r0, #0	; 0x0
a3e00a78:	e3a01038 	mov	r1, #56	; 0x38
a3e00a7c:	ebffffbb 	bl	a3e00970 <LCD_word>
a3e00a80:	e59f1084 	ldr	r1, [pc, #84]	; a3e00b0c <IoTest+0xc8>
a3e00a84:	e3a00000 	mov	r0, #0	; 0x0
a3e00a88:	ebffffb8 	bl	a3e00970 <LCD_word>
a3e00a8c:	e3a00000 	mov	r0, #0	; 0x0
a3e00a90:	e3a0100e 	mov	r1, #14	; 0xe
a3e00a94:	ebffffb5 	bl	a3e00970 <LCD_word>
a3e00a98:	e59f1070 	ldr	r1, [pc, #70]	; a3e00b10 <IoTest+0xcc>
a3e00a9c:	e3a00000 	mov	r0, #0	; 0x0
a3e00aa0:	ebffffb2 	bl	a3e00970 <LCD_word>
a3e00aa4:	e3a00000 	mov	r0, #0	; 0x0
a3e00aa8:	e3a01001 	mov	r1, #1	; 0x1
a3e00aac:	ebffffaf 	bl	a3e00970 <LCD_word>
a3e00ab0:	e59f105c 	ldr	r1, [pc, #5c]	; a3e00b14 <IoTest+0xd0>
a3e00ab4:	e3a00000 	mov	r0, #0	; 0x0
a3e00ab8:	ebffffac 	bl	a3e00970 <LCD_word>
a3e00abc:	e3a00000 	mov	r0, #0	; 0x0
a3e00ac0:	e3a01002 	mov	r1, #2	; 0x2
a3e00ac4:	ebffffa9 	bl	a3e00970 <LCD_word>
a3e00ac8:	e59f1048 	ldr	r1, [pc, #48]	; a3e00b18 <IoTest+0xd4>
a3e00acc:	e3a00000 	mov	r0, #0	; 0x0
a3e00ad0:	ebffffa6 	bl	a3e00970 <LCD_word>
a3e00ad4:	e3a00000 	mov	r0, #0	; 0x0
a3e00ad8:	e3a01006 	mov	r1, #6	; 0x6
a3e00adc:	ebffffa3 	bl	a3e00970 <LCD_word>
a3e00ae0:	e59f1034 	ldr	r1, [pc, #34]	; a3e00b1c <IoTest+0xd8>
a3e00ae4:	e3a00000 	mov	r0, #0	; 0x0
a3e00ae8:	ebffffa9 	bl	a3e00994 <printLCD>
a3e00aec:	e59f102c 	ldr	r1, [pc, #2c]	; a3e00b20 <IoTest+0xdc>
a3e00af0:	e3a00001 	mov	r0, #1	; 0x1
a3e00af4:	ebffffa6 	bl	a3e00994 <printLCD>
a3e00af8:	e3a00001 	mov	r0, #1	; 0x1
a3e00afc:	e8bd8000 	ldmia	sp!, {pc}
a3e00b00:	10300000 	eornes	r0, r0, r0
a3e00b04:	00000438 	andeq	r0, r0, r8, lsr r4
a3e00b08:	10600000 	rsbne	r0, r0, r0
a3e00b0c:	0000040e 	andeq	r0, r0, lr, lsl #8
a3e00b10:	00000401 	andeq	r0, r0, r1, lsl #8
a3e00b14:	00000402 	andeq	r0, r0, r2, lsl #8
a3e00b18:	00000406 	andeq	r0, r0, r6, lsl #8
a3e00b1c:	a3e05824 	mvnge	r5, #2359296	; 0x240000
a3e00b20:	a3e0583c 	mvnge	r5, #3932160	; 0x3c0000

a3e00b24 <StrCmp>:
a3e00b24:	e1a0c000 	mov	ip, r0
a3e00b28:	e5dc2000 	ldrb	r2, [ip]
a3e00b2c:	e5d13000 	ldrb	r3, [r1]
a3e00b30:	e0520003 	subs	r0, r2, r3
a3e00b34:	11a0f00e 	movne	pc, lr
a3e00b38:	e3520000 	cmp	r2, #0	; 0x0
a3e00b3c:	01a0f00e 	moveq	pc, lr
a3e00b40:	e28cc001 	add	ip, ip, #1	; 0x1
a3e00b44:	e2811001 	add	r1, r1, #1	; 0x1
a3e00b48:	eafffff6 	b	a3e00b28 <StrCmp+0x4>

a3e00b4c <StrLen>:
a3e00b4c:	e2502000 	subs	r2, r0, #0	; 0x0
a3e00b50:	03e00000 	mvneq	r0, #0	; 0x0
a3e00b54:	01a0f00e 	moveq	pc, lr
a3e00b58:	e5d03000 	ldrb	r3, [r0]
a3e00b5c:	e3530000 	cmp	r3, #0	; 0x0
a3e00b60:	0a000002 	beq	a3e00b70 <StrLen+0x24>
a3e00b64:	e5f23001 	ldrb	r3, [r2, #1]!
a3e00b68:	e3530000 	cmp	r3, #0	; 0x0
a3e00b6c:	1afffffc 	bne	a3e00b64 <StrLen+0x18>
a3e00b70:	e0600002 	rsb	r0, r0, r2
a3e00b74:	e1a0f00e 	mov	pc, lr

a3e00b78 <StrCpy>:
a3e00b78:	e5d13000 	ldrb	r3, [r1]
a3e00b7c:	e3530000 	cmp	r3, #0	; 0x0
a3e00b80:	0a000004 	beq	a3e00b98 <StrCpy+0x20>
a3e00b84:	e5d13000 	ldrb	r3, [r1]
a3e00b88:	e4c03001 	strb	r3, [r0], #1
a3e00b8c:	e5f12001 	ldrb	r2, [r1, #1]!
a3e00b90:	e3520000 	cmp	r2, #0	; 0x0
a3e00b94:	1afffffa 	bne	a3e00b84 <StrCpy+0xc>
a3e00b98:	e3a03000 	mov	r3, #0	; 0x0
a3e00b9c:	e5c03000 	strb	r3, [r0]
a3e00ba0:	e1a0f00e 	mov	pc, lr

a3e00ba4 <StrNCmp>:
a3e00ba4:	e3a0c000 	mov	ip, #0	; 0x0
a3e00ba8:	e15c0002 	cmp	ip, r2
a3e00bac:	e92d4000 	stmdb	sp!, {lr}
a3e00bb0:	e1a0e000 	mov	lr, r0
a3e00bb4:	aa00000c 	bge	a3e00bec <StrNCmp+0x48>
a3e00bb8:	e7de000c 	ldrb	r0, [lr, ip]
a3e00bbc:	e7d1300c 	ldrb	r3, [r1, ip]
a3e00bc0:	e1500003 	cmp	r0, r3
a3e00bc4:	0a000003 	beq	a3e00bd8 <StrNCmp+0x34>
a3e00bc8:	e1a03000 	mov	r3, r0
a3e00bcc:	e7d1000c 	ldrb	r0, [r1, ip]
a3e00bd0:	e0600003 	rsb	r0, r0, r3
a3e00bd4:	e8bd8000 	ldmia	sp!, {pc}
a3e00bd8:	e3500000 	cmp	r0, #0	; 0x0
a3e00bdc:	08bd8000 	ldmeqia	sp!, {pc}
a3e00be0:	e28cc001 	add	ip, ip, #1	; 0x1
a3e00be4:	e15c0002 	cmp	ip, r2
a3e00be8:	bafffff2 	blt	a3e00bb8 <StrNCmp+0x14>
a3e00bec:	e3a00000 	mov	r0, #0	; 0x0
a3e00bf0:	e8bd8000 	ldmia	sp!, {pc}

a3e00bf4 <HexToInt>:
a3e00bf4:	e92d40f0 	stmdb	sp!, {r4, r5, r6, r7, lr}
a3e00bf8:	e1a04000 	mov	r4, r0
a3e00bfc:	e1a07001 	mov	r7, r1
a3e00c00:	e3570000 	cmp	r7, #0	; 0x0
a3e00c04:	13a03000 	movne	r3, #0	; 0x0
a3e00c08:	03a03001 	moveq	r3, #1	; 0x1
a3e00c0c:	e3540000 	cmp	r4, #0	; 0x0
a3e00c10:	11a06003 	movne	r6, r3
a3e00c14:	03a06001 	moveq	r6, #1	; 0x1
a3e00c18:	e3560000 	cmp	r6, #0	; 0x0
a3e00c1c:	e1a05002 	mov	r5, r2
a3e00c20:	0a000001 	beq	a3e00c2c <HexToInt+0x38>
a3e00c24:	e3a00000 	mov	r0, #0	; 0x0
a3e00c28:	e8bd80f0 	ldmia	sp!, {r4, r5, r6, r7, pc}
a3e00c2c:	e1a00004 	mov	r0, r4
a3e00c30:	e59f10e4 	ldr	r1, [pc, #e4]	; a3e00d1c <HexToInt+0x128>
a3e00c34:	e3a02002 	mov	r2, #2	; 0x2
a3e00c38:	ebffffd9 	bl	a3e00ba4 <StrNCmp>
a3e00c3c:	e2843002 	add	r3, r4, #2	; 0x2
a3e00c40:	e3500000 	cmp	r0, #0	; 0x0
a3e00c44:	01a04003 	moveq	r4, r3
a3e00c48:	e1a01006 	mov	r1, r6
a3e00c4c:	e1a00001 	mov	r0, r1
a3e00c50:	e3550000 	cmp	r5, #0	; 0x0
a3e00c54:	b2853003 	addlt	r3, r5, #3	; 0x3
a3e00c58:	a1a03005 	movge	r3, r5
a3e00c5c:	e1510143 	cmp	r1, r3, asr #2
a3e00c60:	e1a0cfc5 	mov	ip, r5, asr #31
a3e00c64:	aa00001c 	bge	a3e00cdc <HexToInt+0xe8>
a3e00c68:	e5d43000 	ldrb	r3, [r4]
a3e00c6c:	e3530000 	cmp	r3, #0	; 0x0
a3e00c70:	0a000028 	beq	a3e00d18 <HexToInt+0x124>
a3e00c74:	e4d42001 	ldrb	r2, [r4], #1
a3e00c78:	e2423030 	sub	r3, r2, #48	; 0x30
a3e00c7c:	e20330ff 	and	r3, r3, #255	; 0xff
a3e00c80:	e3530009 	cmp	r3, #9	; 0x9
a3e00c84:	91a02003 	movls	r2, r3
a3e00c88:	9a000008 	bls	a3e00cb0 <HexToInt+0xbc>
a3e00c8c:	e2423061 	sub	r3, r2, #97	; 0x61
a3e00c90:	e3530005 	cmp	r3, #5	; 0x5
a3e00c94:	928230a9 	addls	r3, r2, #169	; 0xa9
a3e00c98:	9a000003 	bls	a3e00cac <HexToInt+0xb8>
a3e00c9c:	e2423041 	sub	r3, r2, #65	; 0x41
a3e00ca0:	e3530005 	cmp	r3, #5	; 0x5
a3e00ca4:	8affffde 	bhi	a3e00c24 <HexToInt+0x30>
a3e00ca8:	e28230c9 	add	r3, r2, #201	; 0xc9
a3e00cac:	e20320ff 	and	r2, r3, #255	; 0xff
a3e00cb0:	e1821201 	orr	r1, r2, r1, lsl #4
a3e00cb4:	e2800001 	add	r0, r0, #1	; 0x1
a3e00cb8:	e1a03f2c 	mov	r3, ip, lsr #30
a3e00cbc:	e0853003 	add	r3, r5, r3
a3e00cc0:	e1500143 	cmp	r0, r3, asr #2
a3e00cc4:	aa000004 	bge	a3e00cdc <HexToInt+0xe8>
a3e00cc8:	e5d43000 	ldrb	r3, [r4]
a3e00ccc:	e3530000 	cmp	r3, #0	; 0x0
a3e00cd0:	1affffe7 	bne	a3e00c74 <HexToInt+0x80>
a3e00cd4:	e3500000 	cmp	r0, #0	; 0x0
a3e00cd8:	0a00000e 	beq	a3e00d18 <HexToInt+0x124>
a3e00cdc:	e3550010 	cmp	r5, #16	; 0x10
a3e00ce0:	0a000008 	beq	a3e00d08 <HexToInt+0x114>
a3e00ce4:	ca000002 	bgt	a3e00cf4 <HexToInt+0x100>
a3e00ce8:	e3550008 	cmp	r5, #8	; 0x8
a3e00cec:	0a000003 	beq	a3e00d00 <HexToInt+0x10c>
a3e00cf0:	eaffffcb 	b	a3e00c24 <HexToInt+0x30>
a3e00cf4:	e3550020 	cmp	r5, #32	; 0x20
a3e00cf8:	0a000004 	beq	a3e00d10 <HexToInt+0x11c>
a3e00cfc:	eaffffc8 	b	a3e00c24 <HexToInt+0x30>
a3e00d00:	e5c71000 	strb	r1, [r7]
a3e00d04:	ea000002 	b	a3e00d14 <HexToInt+0x120>
a3e00d08:	e1c710b0 	strh	r1, [r7]
a3e00d0c:	ea000000 	b	a3e00d14 <HexToInt+0x120>
a3e00d10:	e5871000 	str	r1, [r7]
a3e00d14:	e3a00001 	mov	r0, #1	; 0x1
a3e00d18:	e8bd80f0 	ldmia	sp!, {r4, r5, r6, r7, pc}
a3e00d1c:	a3e05848 	mvnge	r5, #4718592	; 0x480000

a3e00d20 <StrToInt>:
a3e00d20:	e3a0c000 	mov	ip, #0	; 0x0
a3e00d24:	e5d03000 	ldrb	r3, [r0]
a3e00d28:	e3a01001 	mov	r1, #1	; 0x1
a3e00d2c:	e3530030 	cmp	r3, #48	; 0x30
a3e00d30:	1a000027 	bne	a3e00dd4 <StrToInt+0xb4>
a3e00d34:	e5d03001 	ldrb	r3, [r0, #1]
a3e00d38:	e3530078 	cmp	r3, #120	; 0x78
a3e00d3c:	1a000024 	bne	a3e00dd4 <StrToInt+0xb4>
a3e00d40:	e2800002 	add	r0, r0, #2	; 0x2
a3e00d44:	e5d03000 	ldrb	r3, [r0]
a3e00d48:	e3530030 	cmp	r3, #48	; 0x30
a3e00d4c:	03510001 	cmpeq	r1, #1	; 0x1
a3e00d50:	02800001 	addeq	r0, r0, #1	; 0x1
a3e00d54:	0afffffa 	beq	a3e00d44 <StrToInt+0x24>
a3e00d58:	e5d03000 	ldrb	r3, [r0]
a3e00d5c:	e2432061 	sub	r2, r3, #97	; 0x61
a3e00d60:	e3520005 	cmp	r2, #5	; 0x5
a3e00d64:	979ff102 	ldrls	pc, [pc, r2, lsl #2]
a3e00d68:	ea000011 	b	a3e00db4 <StrToInt+0x94>
a3e00d6c:	a3e00d84 	mvnge	r0, #8448	; 0x2100
a3e00d70:	a3e00d8c 	mvnge	r0, #8960	; 0x2300
a3e00d74:	a3e00d94 	mvnge	r0, #9472	; 0x2500
a3e00d78:	a3e00d9c 	mvnge	r0, #9984	; 0x2700
a3e00d7c:	a3e00da4 	mvnge	r0, #10496	; 0x2900
a3e00d80:	a3e00dac 	mvnge	r0, #11008	; 0x2b00
a3e00d84:	e3a0300a 	mov	r3, #10	; 0xa
a3e00d88:	ea00000a 	b	a3e00db8 <StrToInt+0x98>
a3e00d8c:	e3a0300b 	mov	r3, #11	; 0xb
a3e00d90:	ea000008 	b	a3e00db8 <StrToInt+0x98>
a3e00d94:	e3a0300c 	mov	r3, #12	; 0xc
a3e00d98:	ea000006 	b	a3e00db8 <StrToInt+0x98>
a3e00d9c:	e3a0300d 	mov	r3, #13	; 0xd
a3e00da0:	ea000004 	b	a3e00db8 <StrToInt+0x98>
a3e00da4:	e3a0300e 	mov	r3, #14	; 0xe
a3e00da8:	ea000002 	b	a3e00db8 <StrToInt+0x98>
a3e00dac:	e3a0300f 	mov	r3, #15	; 0xf
a3e00db0:	ea000000 	b	a3e00db8 <StrToInt+0x98>
a3e00db4:	e2433030 	sub	r3, r3, #48	; 0x30
a3e00db8:	e02c3c91 	mla	ip, r1, ip, r3
a3e00dbc:	e5f03001 	ldrb	r3, [r0, #1]!
a3e00dc0:	e3a01010 	mov	r1, #16	; 0x10
a3e00dc4:	e3530000 	cmp	r3, #0	; 0x0
a3e00dc8:	1affffdd 	bne	a3e00d44 <StrToInt+0x24>
a3e00dcc:	e1a0000c 	mov	r0, ip
a3e00dd0:	e1a0f00e 	mov	pc, lr
a3e00dd4:	e5d03000 	ldrb	r3, [r0]
a3e00dd8:	e3530030 	cmp	r3, #48	; 0x30
a3e00ddc:	03510001 	cmpeq	r1, #1	; 0x1
a3e00de0:	02800001 	addeq	r0, r0, #1	; 0x1
a3e00de4:	0afffffa 	beq	a3e00dd4 <StrToInt+0xb4>
a3e00de8:	e5d03000 	ldrb	r3, [r0]
a3e00dec:	e2433030 	sub	r3, r3, #48	; 0x30
a3e00df0:	e02c3c91 	mla	ip, r1, ip, r3
a3e00df4:	e5f03001 	ldrb	r3, [r0, #1]!
a3e00df8:	e3a0100a 	mov	r1, #10	; 0xa
a3e00dfc:	e3530000 	cmp	r3, #0	; 0x0
a3e00e00:	1afffff3 	bne	a3e00dd4 <StrToInt+0xb4>
a3e00e04:	e1a0000c 	mov	r0, ip
a3e00e08:	e1a0f00e 	mov	pc, lr

a3e00e0c <PrintChar>:
a3e00e0c:	e20100ff 	and	r0, r1, #255	; 0xff
a3e00e10:	eafffe60 	b	a3e00798 <PutChar>

a3e00e14 <MOD>:
a3e00e14:	e1500001 	cmp	r0, r1
a3e00e18:	b1a0f00e 	movlt	pc, lr
a3e00e1c:	e0610000 	rsb	r0, r1, r0
a3e00e20:	eafffffb 	b	a3e00e14 <MOD>

a3e00e24 <DEV>:
a3e00e24:	e3a03000 	mov	r3, #0	; 0x0
a3e00e28:	e1500001 	cmp	r0, r1
a3e00e2c:	ba000002 	blt	a3e00e3c <DEV+0x18>
a3e00e30:	e2833001 	add	r3, r3, #1	; 0x1
a3e00e34:	e0610000 	rsb	r0, r1, r0
a3e00e38:	eafffffa 	b	a3e00e28 <DEV+0x4>
a3e00e3c:	e1a00003 	mov	r0, r3
a3e00e40:	e1a0f00e 	mov	pc, lr

a3e00e44 <PrintDec>:
a3e00e44:	e92d41f0 	stmdb	sp!, {r4, r5, r6, r7, r8, lr}
a3e00e48:	e3a08000 	mov	r8, #0	; 0x0
a3e00e4c:	e3a07001 	mov	r7, #1	; 0x1
a3e00e50:	e1a05000 	mov	r5, r0
a3e00e54:	e1a04008 	mov	r4, r8
a3e00e58:	e24dd010 	sub	sp, sp, #16	; 0x10
a3e00e5c:	e7d52008 	ldrb	r2, [r5, r8]
a3e00e60:	e1a06001 	mov	r6, r1
a3e00e64:	e58d8000 	str	r8, [sp]
a3e00e68:	e1520008 	cmp	r2, r8
a3e00e6c:	ea00001c 	b	a3e00ee4 <PrintDec+0xa0>
a3e00e70:	e2423031 	sub	r3, r2, #49	; 0x31
a3e00e74:	e3530008 	cmp	r3, #8	; 0x8
a3e00e78:	8a000014 	bhi	a3e00ed0 <PrintDec+0x8c>
a3e00e7c:	e3a0e000 	mov	lr, #0	; 0x0
a3e00e80:	e28dc004 	add	ip, sp, #4	; 0x4
a3e00e84:	e7d52004 	ldrb	r2, [r5, r4]
a3e00e88:	e1a0100d 	mov	r1, sp
a3e00e8c:	e2423030 	sub	r3, r2, #48	; 0x30
a3e00e90:	e3530009 	cmp	r3, #9	; 0x9
a3e00e94:	8a000007 	bhi	a3e00eb8 <PrintDec+0x74>
a3e00e98:	e1a0000c 	mov	r0, ip
a3e00e9c:	e2844001 	add	r4, r4, #1	; 0x1
a3e00ea0:	e7c0200e 	strb	r2, [r0, lr]
a3e00ea4:	e7d52004 	ldrb	r2, [r5, r4]
a3e00ea8:	e28ee001 	add	lr, lr, #1	; 0x1
a3e00eac:	e2423030 	sub	r3, r2, #48	; 0x30
a3e00eb0:	e3530009 	cmp	r3, #9	; 0x9
a3e00eb4:	9afffff8 	bls	a3e00e9c <PrintDec+0x58>
a3e00eb8:	e2444001 	sub	r4, r4, #1	; 0x1
a3e00ebc:	e1a0000c 	mov	r0, ip
a3e00ec0:	e3a03000 	mov	r3, #0	; 0x0
a3e00ec4:	e7cc300e 	strb	r3, [ip, lr]
a3e00ec8:	eb000158 	bl	a3e01430 <DecToLong>
a3e00ecc:	ea000001 	b	a3e00ed8 <PrintDec+0x94>
a3e00ed0:	e3520030 	cmp	r2, #48	; 0x30
a3e00ed4:	03a08001 	moveq	r8, #1	; 0x1
a3e00ed8:	e2844001 	add	r4, r4, #1	; 0x1
a3e00edc:	e7d52004 	ldrb	r2, [r5, r4]
a3e00ee0:	e3520000 	cmp	r2, #0	; 0x0
a3e00ee4:	0a000001 	beq	a3e00ef0 <PrintDec+0xac>
a3e00ee8:	e3520064 	cmp	r2, #100	; 0x64
a3e00eec:	1affffdf 	bne	a3e00e70 <PrintDec+0x2c>
a3e00ef0:	e59d3000 	ldr	r3, [sp]
a3e00ef4:	e3530000 	cmp	r3, #0	; 0x0
a3e00ef8:	0a000033 	beq	a3e00fcc <PrintDec+0x188>
a3e00efc:	e3530009 	cmp	r3, #9	; 0x9
a3e00f00:	c3a03009 	movgt	r3, #9	; 0x9
a3e00f04:	c58d3000 	strgt	r3, [sp]
a3e00f08:	e59d1000 	ldr	r1, [sp]
a3e00f0c:	e3a0000a 	mov	r0, #10	; 0xa
a3e00f10:	eb000160 	bl	a3e01498 <Power>
a3e00f14:	e1a01000 	mov	r1, r0
a3e00f18:	e1a00006 	mov	r0, r6
a3e00f1c:	ebffffbc 	bl	a3e00e14 <MOD>
a3e00f20:	e1a06000 	mov	r6, r0
a3e00f24:	e59d1000 	ldr	r1, [sp]
a3e00f28:	e3a0000a 	mov	r0, #10	; 0xa
a3e00f2c:	e2411001 	sub	r1, r1, #1	; 0x1
a3e00f30:	eb000158 	bl	a3e01498 <Power>
a3e00f34:	e2504000 	subs	r4, r0, #0	; 0x0
a3e00f38:	da000041 	ble	a3e01044 <PrintDec+0x200>
a3e00f3c:	e1a00006 	mov	r0, r6
a3e00f40:	e1a01004 	mov	r1, r4
a3e00f44:	ebffffb6 	bl	a3e00e24 <DEV>
a3e00f48:	e1a05000 	mov	r5, r0
a3e00f4c:	e1a00006 	mov	r0, r6
a3e00f50:	e1a01004 	mov	r1, r4
a3e00f54:	ebffffae 	bl	a3e00e14 <MOD>
a3e00f58:	e1a06000 	mov	r6, r0
a3e00f5c:	e3540001 	cmp	r4, #1	; 0x1
a3e00f60:	13a03000 	movne	r3, #0	; 0x0
a3e00f64:	03a03001 	moveq	r3, #1	; 0x1
a3e00f68:	e3550000 	cmp	r5, #0	; 0x0
a3e00f6c:	13a03001 	movne	r3, #1	; 0x1
a3e00f70:	e3530000 	cmp	r3, #0	; 0x0
a3e00f74:	13a07000 	movne	r7, #0	; 0x0
a3e00f78:	e3570001 	cmp	r7, #1	; 0x1
a3e00f7c:	1a000007 	bne	a3e00fa0 <PrintDec+0x15c>
a3e00f80:	e3580000 	cmp	r8, #0	; 0x0
a3e00f84:	0a000002 	beq	a3e00f94 <PrintDec+0x150>
a3e00f88:	e3a00030 	mov	r0, #48	; 0x30
a3e00f8c:	ebfffe01 	bl	a3e00798 <PutChar>
a3e00f90:	ea000005 	b	a3e00fac <PrintDec+0x168>
a3e00f94:	e3a00020 	mov	r0, #32	; 0x20
a3e00f98:	ebfffdfe 	bl	a3e00798 <PutChar>
a3e00f9c:	ea000002 	b	a3e00fac <PrintDec+0x168>
a3e00fa0:	e2850030 	add	r0, r5, #48	; 0x30
a3e00fa4:	e20000ff 	and	r0, r0, #255	; 0xff
a3e00fa8:	ebfffdfa 	bl	a3e00798 <PutChar>
a3e00fac:	e59f3014 	ldr	r3, [pc, #14]	; a3e00fc8 <PrintDec+0x184>
a3e00fb0:	e0c12493 	smull	r2, r1, r3, r4
a3e00fb4:	e1a02fc4 	mov	r2, r4, asr #31
a3e00fb8:	e0624141 	rsb	r4, r2, r1, asr #2
a3e00fbc:	e3540000 	cmp	r4, #0	; 0x0
a3e00fc0:	caffffdd 	bgt	a3e00f3c <PrintDec+0xf8>
a3e00fc4:	ea00001e 	b	a3e01044 <PrintDec+0x200>
a3e00fc8:	66666667 	strvsbt	r6, [r6], -r7, ror #12
a3e00fcc:	e59f4064 	ldr	r4, [pc, #64]	; a3e01038 <PrintDec+0x1f4>
a3e00fd0:	e1a00006 	mov	r0, r6
a3e00fd4:	e1a01004 	mov	r1, r4
a3e00fd8:	ebffff91 	bl	a3e00e24 <DEV>
a3e00fdc:	e1a05000 	mov	r5, r0
a3e00fe0:	e1a00006 	mov	r0, r6
a3e00fe4:	e1a01004 	mov	r1, r4
a3e00fe8:	ebffff89 	bl	a3e00e14 <MOD>
a3e00fec:	e1a06000 	mov	r6, r0
a3e00ff0:	e3540001 	cmp	r4, #1	; 0x1
a3e00ff4:	13a03000 	movne	r3, #0	; 0x0
a3e00ff8:	03a03001 	moveq	r3, #1	; 0x1
a3e00ffc:	e3550000 	cmp	r5, #0	; 0x0
a3e01000:	13a03001 	movne	r3, #1	; 0x1
a3e01004:	e3530000 	cmp	r3, #0	; 0x0
a3e01008:	13a07000 	movne	r7, #0	; 0x0
a3e0100c:	e3570000 	cmp	r7, #0	; 0x0
a3e01010:	1a000002 	bne	a3e01020 <PrintDec+0x1dc>
a3e01014:	e2850030 	add	r0, r5, #48	; 0x30
a3e01018:	e20000ff 	and	r0, r0, #255	; 0xff
a3e0101c:	ebfffddd 	bl	a3e00798 <PutChar>
a3e01020:	e59f3014 	ldr	r3, [pc, #14]	; a3e0103c <PrintDec+0x1f8>
a3e01024:	e0c12493 	smull	r2, r1, r3, r4
a3e01028:	e1a02fc4 	mov	r2, r4, asr #31
a3e0102c:	e0624141 	rsb	r4, r2, r1, asr #2
a3e01030:	e3540000 	cmp	r4, #0	; 0x0
a3e01034:	ea000001 	b	a3e01040 <PrintDec+0x1fc>
a3e01038:	3b9aca00 	blcc	a24b3840 <_start-0x194c7c0>
a3e0103c:	66666667 	strvsbt	r6, [r6], -r7, ror #12
a3e01040:	caffffe2 	bgt	a3e00fd0 <PrintDec+0x18c>
a3e01044:	e28dd010 	add	sp, sp, #16	; 0x10
a3e01048:	e8bd81f0 	ldmia	sp!, {r4, r5, r6, r7, r8, pc}

a3e0104c <PrintHex>:
a3e0104c:	e92d41f0 	stmdb	sp!, {r4, r5, r6, r7, r8, lr}
a3e01050:	e3a08000 	mov	r8, #0	; 0x0
a3e01054:	e3a06001 	mov	r6, #1	; 0x1
a3e01058:	e1a05008 	mov	r5, r8
a3e0105c:	e1a04000 	mov	r4, r0
a3e01060:	e24dd014 	sub	sp, sp, #20	; 0x14
a3e01064:	e7d42005 	ldrb	r2, [r4, r5]
a3e01068:	e1a0700d 	mov	r7, sp
a3e0106c:	e88d0102 	stmia	sp, {r1, r8}
a3e01070:	e1520008 	cmp	r2, r8
a3e01074:	ea00001c 	b	a3e010ec <PrintHex+0xa0>
a3e01078:	e2423031 	sub	r3, r2, #49	; 0x31
a3e0107c:	e3530008 	cmp	r3, #8	; 0x8
a3e01080:	8a000014 	bhi	a3e010d8 <PrintHex+0x8c>
a3e01084:	e3a0e000 	mov	lr, #0	; 0x0
a3e01088:	e28dc008 	add	ip, sp, #8	; 0x8
a3e0108c:	e7d42005 	ldrb	r2, [r4, r5]
a3e01090:	e28d1004 	add	r1, sp, #4	; 0x4
a3e01094:	e2423030 	sub	r3, r2, #48	; 0x30
a3e01098:	e3530009 	cmp	r3, #9	; 0x9
a3e0109c:	8a000007 	bhi	a3e010c0 <PrintHex+0x74>
a3e010a0:	e1a0000c 	mov	r0, ip
a3e010a4:	e2855001 	add	r5, r5, #1	; 0x1
a3e010a8:	e7c0200e 	strb	r2, [r0, lr]
a3e010ac:	e7d42005 	ldrb	r2, [r4, r5]
a3e010b0:	e28ee001 	add	lr, lr, #1	; 0x1
a3e010b4:	e2423030 	sub	r3, r2, #48	; 0x30
a3e010b8:	e3530009 	cmp	r3, #9	; 0x9
a3e010bc:	9afffff8 	bls	a3e010a4 <PrintHex+0x58>
a3e010c0:	e2455001 	sub	r5, r5, #1	; 0x1
a3e010c4:	e1a0000c 	mov	r0, ip
a3e010c8:	e3a03000 	mov	r3, #0	; 0x0
a3e010cc:	e7cc300e 	strb	r3, [ip, lr]
a3e010d0:	eb0000d6 	bl	a3e01430 <DecToLong>
a3e010d4:	ea000001 	b	a3e010e0 <PrintHex+0x94>
a3e010d8:	e3520030 	cmp	r2, #48	; 0x30
a3e010dc:	03a08001 	moveq	r8, #1	; 0x1
a3e010e0:	e2855001 	add	r5, r5, #1	; 0x1
a3e010e4:	e7d42005 	ldrb	r2, [r4, r5]
a3e010e8:	e3520000 	cmp	r2, #0	; 0x0
a3e010ec:	0a000001 	beq	a3e010f8 <PrintHex+0xac>
a3e010f0:	e3520078 	cmp	r2, #120	; 0x78
a3e010f4:	1affffdf 	bne	a3e01078 <PrintHex+0x2c>
a3e010f8:	e59d0004 	ldr	r0, [sp, #4]
a3e010fc:	e59d3000 	ldr	r3, [sp]
a3e01100:	e3500000 	cmp	r0, #0	; 0x0
a3e01104:	e2032cff 	and	r2, r3, #65280	; 0xff00
a3e01108:	e1a02402 	mov	r2, r2, lsl #8
a3e0110c:	e1822c03 	orr	r2, r2, r3, lsl #24
a3e01110:	e20318ff 	and	r1, r3, #16711680	; 0xff0000
a3e01114:	e1822421 	orr	r2, r2, r1, lsr #8
a3e01118:	e1822c23 	orr	r2, r2, r3, lsr #24
a3e0111c:	e58d2000 	str	r2, [sp]
a3e01120:	0a000046 	beq	a3e01240 <PrintHex+0x1f4>
a3e01124:	e3100001 	tst	r0, #1	; 0x1
a3e01128:	0a000017 	beq	a3e0118c <PrintHex+0x140>
a3e0112c:	e2603007 	rsb	r3, r0, #7	; 0x7
a3e01130:	e0833fa3 	add	r3, r3, r3, lsr #31
a3e01134:	e7d720c3 	ldrb	r2, [r7, r3, asr #1]
a3e01138:	e212000f 	ands	r0, r2, #15	; 0xf
a3e0113c:	03a06001 	moveq	r6, #1	; 0x1
a3e01140:	13a06000 	movne	r6, #0	; 0x0
a3e01144:	e3500009 	cmp	r0, #9	; 0x9
a3e01148:	93800030 	orrls	r0, r0, #48	; 0x30
a3e0114c:	82803037 	addhi	r3, r0, #55	; 0x37
a3e01150:	820300ff 	andhi	r0, r3, #255	; 0xff
a3e01154:	e3560000 	cmp	r6, #0	; 0x0
a3e01158:	0a000007 	beq	a3e0117c <PrintHex+0x130>
a3e0115c:	e3580000 	cmp	r8, #0	; 0x0
a3e01160:	0a000002 	beq	a3e01170 <PrintHex+0x124>
a3e01164:	e3a00030 	mov	r0, #48	; 0x30
a3e01168:	ebfffd8a 	bl	a3e00798 <PutChar>
a3e0116c:	ea000003 	b	a3e01180 <PrintHex+0x134>
a3e01170:	e3a00020 	mov	r0, #32	; 0x20
a3e01174:	ebfffd87 	bl	a3e00798 <PutChar>
a3e01178:	ea000000 	b	a3e01180 <PrintHex+0x134>
a3e0117c:	ebfffd85 	bl	a3e00798 <PutChar>
a3e01180:	e59d3004 	ldr	r3, [sp, #4]
a3e01184:	e2433001 	sub	r3, r3, #1	; 0x1
a3e01188:	e58d3004 	str	r3, [sp, #4]
a3e0118c:	e59d3004 	ldr	r3, [sp, #4]
a3e01190:	e2633008 	rsb	r3, r3, #8	; 0x8
a3e01194:	e0833fa3 	add	r3, r3, r3, lsr #31
a3e01198:	e1a050c3 	mov	r5, r3, asr #1
a3e0119c:	e3550003 	cmp	r5, #3	; 0x3
a3e011a0:	ca000042 	bgt	a3e012b0 <PrintHex+0x264>
a3e011a4:	e7d72005 	ldrb	r2, [r7, r5]
a3e011a8:	e1b00222 	movs	r0, r2, lsr #4
a3e011ac:	13a06000 	movne	r6, #0	; 0x0
a3e011b0:	e3500009 	cmp	r0, #9	; 0x9
a3e011b4:	e202400f 	and	r4, r2, #15	; 0xf
a3e011b8:	93800030 	orrls	r0, r0, #48	; 0x30
a3e011bc:	82803037 	addhi	r3, r0, #55	; 0x37
a3e011c0:	820300ff 	andhi	r0, r3, #255	; 0xff
a3e011c4:	e3560000 	cmp	r6, #0	; 0x0
a3e011c8:	0a000007 	beq	a3e011ec <PrintHex+0x1a0>
a3e011cc:	e3580000 	cmp	r8, #0	; 0x0
a3e011d0:	0a000002 	beq	a3e011e0 <PrintHex+0x194>
a3e011d4:	e3a00030 	mov	r0, #48	; 0x30
a3e011d8:	ebfffd6e 	bl	a3e00798 <PutChar>
a3e011dc:	ea000003 	b	a3e011f0 <PrintHex+0x1a4>
a3e011e0:	e3a00020 	mov	r0, #32	; 0x20
a3e011e4:	ebfffd6b 	bl	a3e00798 <PutChar>
a3e011e8:	ea000000 	b	a3e011f0 <PrintHex+0x1a4>
a3e011ec:	ebfffd69 	bl	a3e00798 <PutChar>
a3e011f0:	e3540000 	cmp	r4, #0	; 0x0
a3e011f4:	13a06000 	movne	r6, #0	; 0x0
a3e011f8:	e3540009 	cmp	r4, #9	; 0x9
a3e011fc:	93840030 	orrls	r0, r4, #48	; 0x30
a3e01200:	82840037 	addhi	r0, r4, #55	; 0x37
a3e01204:	e3560000 	cmp	r6, #0	; 0x0
a3e01208:	0a000007 	beq	a3e0122c <PrintHex+0x1e0>
a3e0120c:	e3580000 	cmp	r8, #0	; 0x0
a3e01210:	0a000002 	beq	a3e01220 <PrintHex+0x1d4>
a3e01214:	e3a00030 	mov	r0, #48	; 0x30
a3e01218:	ebfffd5e 	bl	a3e00798 <PutChar>
a3e0121c:	ea000003 	b	a3e01230 <PrintHex+0x1e4>
a3e01220:	e3a00020 	mov	r0, #32	; 0x20
a3e01224:	ebfffd5b 	bl	a3e00798 <PutChar>
a3e01228:	ea000000 	b	a3e01230 <PrintHex+0x1e4>
a3e0122c:	ebfffd59 	bl	a3e00798 <PutChar>
a3e01230:	e2855001 	add	r5, r5, #1	; 0x1
a3e01234:	e3550003 	cmp	r5, #3	; 0x3
a3e01238:	daffffd9 	ble	a3e011a4 <PrintHex+0x158>
a3e0123c:	ea00001b 	b	a3e012b0 <PrintHex+0x264>
a3e01240:	e1a05000 	mov	r5, r0
a3e01244:	e7d72005 	ldrb	r2, [r7, r5]
a3e01248:	e1b00222 	movs	r0, r2, lsr #4
a3e0124c:	13a06000 	movne	r6, #0	; 0x0
a3e01250:	e3500009 	cmp	r0, #9	; 0x9
a3e01254:	e202400f 	and	r4, r2, #15	; 0xf
a3e01258:	93800030 	orrls	r0, r0, #48	; 0x30
a3e0125c:	82803037 	addhi	r3, r0, #55	; 0x37
a3e01260:	820300ff 	andhi	r0, r3, #255	; 0xff
a3e01264:	e3560000 	cmp	r6, #0	; 0x0
a3e01268:	1a000000 	bne	a3e01270 <PrintHex+0x224>
a3e0126c:	ebfffd49 	bl	a3e00798 <PutChar>
a3e01270:	e3550003 	cmp	r5, #3	; 0x3
a3e01274:	13a03000 	movne	r3, #0	; 0x0
a3e01278:	03a03001 	moveq	r3, #1	; 0x1
a3e0127c:	e3540000 	cmp	r4, #0	; 0x0
a3e01280:	13a03001 	movne	r3, #1	; 0x1
a3e01284:	e3530000 	cmp	r3, #0	; 0x0
a3e01288:	13a06000 	movne	r6, #0	; 0x0
a3e0128c:	e3540009 	cmp	r4, #9	; 0x9
a3e01290:	93840030 	orrls	r0, r4, #48	; 0x30
a3e01294:	82840037 	addhi	r0, r4, #55	; 0x37
a3e01298:	e3560000 	cmp	r6, #0	; 0x0
a3e0129c:	1a000000 	bne	a3e012a4 <PrintHex+0x258>
a3e012a0:	ebfffd3c 	bl	a3e00798 <PutChar>
a3e012a4:	e2855001 	add	r5, r5, #1	; 0x1
a3e012a8:	e3550003 	cmp	r5, #3	; 0x3
a3e012ac:	daffffe4 	ble	a3e01244 <PrintHex+0x1f8>
a3e012b0:	e28dd014 	add	sp, sp, #20	; 0x14
a3e012b4:	e8bd81f0 	ldmia	sp!, {r4, r5, r6, r7, r8, pc}

a3e012b8 <PrintString>:
a3e012b8:	e92d4010 	stmdb	sp!, {r4, lr}
a3e012bc:	e1a04001 	mov	r4, r1
a3e012c0:	e3540000 	cmp	r4, #0	; 0x0
a3e012c4:	13500000 	cmpne	r0, #0	; 0x0
a3e012c8:	0a000007 	beq	a3e012ec <PrintString+0x34>
a3e012cc:	e5d43000 	ldrb	r3, [r4]
a3e012d0:	e3530000 	cmp	r3, #0	; 0x0
a3e012d4:	0a000004 	beq	a3e012ec <PrintString+0x34>
a3e012d8:	e5d40000 	ldrb	r0, [r4]
a3e012dc:	ebfffd2d 	bl	a3e00798 <PutChar>
a3e012e0:	e5f43001 	ldrb	r3, [r4, #1]!
a3e012e4:	e3530000 	cmp	r3, #0	; 0x0
a3e012e8:	1afffffa 	bne	a3e012d8 <PrintString+0x20>
a3e012ec:	e8bd8010 	ldmia	sp!, {r4, pc}

a3e012f0 <printf>:
a3e012f0:	e92d000f 	stmdb	sp!, {r0, r1, r2, r3}
a3e012f4:	e92d4030 	stmdb	sp!, {r4, r5, lr}
a3e012f8:	e24dd00c 	sub	sp, sp, #12	; 0xc
a3e012fc:	e59d4018 	ldr	r4, [sp, #24]
a3e01300:	e5d43000 	ldrb	r3, [r4]
a3e01304:	e28d501c 	add	r5, sp, #28	; 0x1c
a3e01308:	e3530000 	cmp	r3, #0	; 0x0
a3e0130c:	0a000043 	beq	a3e01420 <printf+0x130>
a3e01310:	e20330ff 	and	r3, r3, #255	; 0xff
a3e01314:	e3530025 	cmp	r3, #37	; 0x25
a3e01318:	1a000038 	bne	a3e01400 <printf+0x110>
a3e0131c:	e2844001 	add	r4, r4, #1	; 0x1
a3e01320:	e3a01001 	mov	r1, #1	; 0x1
a3e01324:	e1a0000d 	mov	r0, sp
a3e01328:	e1a0c000 	mov	ip, r0
a3e0132c:	e3a0e000 	mov	lr, #0	; 0x0
a3e01330:	e5cd3000 	strb	r3, [sp]
a3e01334:	e5d42000 	ldrb	r2, [r4]
a3e01338:	e2423063 	sub	r3, r2, #99	; 0x63
a3e0133c:	e3520078 	cmp	r2, #120	; 0x78
a3e01340:	13530001 	cmpne	r3, #1	; 0x1
a3e01344:	9a000004 	bls	a3e0135c <printf+0x6c>
a3e01348:	e20230ff 	and	r3, r2, #255	; 0xff
a3e0134c:	e3530073 	cmp	r3, #115	; 0x73
a3e01350:	0a000001 	beq	a3e0135c <printf+0x6c>
a3e01354:	e3530025 	cmp	r3, #37	; 0x25
a3e01358:	1a000004 	bne	a3e01370 <printf+0x80>
a3e0135c:	e5d43000 	ldrb	r3, [r4]
a3e01360:	e7cc3001 	strb	r3, [ip, r1]
a3e01364:	e2811001 	add	r1, r1, #1	; 0x1
a3e01368:	e7cce001 	strb	lr, [ip, r1]
a3e0136c:	ea000004 	b	a3e01384 <printf+0x94>
a3e01370:	e2844001 	add	r4, r4, #1	; 0x1
a3e01374:	e7cc2001 	strb	r2, [ip, r1]
a3e01378:	e2811001 	add	r1, r1, #1	; 0x1
a3e0137c:	e3510009 	cmp	r1, #9	; 0x9
a3e01380:	daffffeb 	ble	a3e01334 <printf+0x44>
a3e01384:	e4d41001 	ldrb	r1, [r4], #1
a3e01388:	e3510064 	cmp	r1, #100	; 0x64
a3e0138c:	0a00000e 	beq	a3e013cc <printf+0xdc>
a3e01390:	ca000004 	bgt	a3e013a8 <printf+0xb8>
a3e01394:	e3510025 	cmp	r1, #37	; 0x25
a3e01398:	0a000014 	beq	a3e013f0 <printf+0x100>
a3e0139c:	e3510063 	cmp	r1, #99	; 0x63
a3e013a0:	0a000005 	beq	a3e013bc <printf+0xcc>
a3e013a4:	ea000018 	b	a3e0140c <printf+0x11c>
a3e013a8:	e3510073 	cmp	r1, #115	; 0x73
a3e013ac:	0a00000c 	beq	a3e013e4 <printf+0xf4>
a3e013b0:	e3510078 	cmp	r1, #120	; 0x78
a3e013b4:	0a000007 	beq	a3e013d8 <printf+0xe8>
a3e013b8:	ea000013 	b	a3e0140c <printf+0x11c>
a3e013bc:	e2855004 	add	r5, r5, #4	; 0x4
a3e013c0:	e5551004 	ldrb	r1, [r5, -#4]
a3e013c4:	ebfffe90 	bl	a3e00e0c <PrintChar>
a3e013c8:	ea00000f 	b	a3e0140c <printf+0x11c>
a3e013cc:	e4951004 	ldr	r1, [r5], #4
a3e013d0:	ebfffe9b 	bl	a3e00e44 <PrintDec>
a3e013d4:	ea00000c 	b	a3e0140c <printf+0x11c>
a3e013d8:	e4951004 	ldr	r1, [r5], #4
a3e013dc:	ebffff1a 	bl	a3e0104c <PrintHex>
a3e013e0:	ea000009 	b	a3e0140c <printf+0x11c>
a3e013e4:	e4951004 	ldr	r1, [r5], #4
a3e013e8:	ebffffb2 	bl	a3e012b8 <PrintString>
a3e013ec:	ea000006 	b	a3e0140c <printf+0x11c>
a3e013f0:	e59f0004 	ldr	r0, [pc, #4]	; a3e013fc <printf+0x10c>
a3e013f4:	ebfffe84 	bl	a3e00e0c <PrintChar>
a3e013f8:	ea000003 	b	a3e0140c <printf+0x11c>
a3e013fc:	a3e0584c 	mvnge	r5, #4980736	; 0x4c0000
a3e01400:	e59f0010 	ldr	r0, [pc, #10]	; a3e01418 <printf+0x128>
a3e01404:	e4d41001 	ldrb	r1, [r4], #1
a3e01408:	ebfffe7f 	bl	a3e00e0c <PrintChar>
a3e0140c:	e5d43000 	ldrb	r3, [r4]
a3e01410:	e3530000 	cmp	r3, #0	; 0x0
a3e01414:	ea000000 	b	a3e0141c <printf+0x12c>
a3e01418:	a3e0584c 	mvnge	r5, #4980736	; 0x4c0000
a3e0141c:	1affffbb 	bne	a3e01310 <printf+0x20>
a3e01420:	e28dd00c 	add	sp, sp, #12	; 0xc
a3e01424:	e8bd4030 	ldmia	sp!, {r4, r5, lr}
a3e01428:	e28dd010 	add	sp, sp, #16	; 0x10
a3e0142c:	e1a0f00e 	mov	pc, lr

a3e01430 <DecToLong>:
a3e01430:	e3500000 	cmp	r0, #0	; 0x0
a3e01434:	0a000002 	beq	a3e01444 <DecToLong+0x14>
a3e01438:	e5d03000 	ldrb	r3, [r0]
a3e0143c:	e3530000 	cmp	r3, #0	; 0x0
a3e01440:	1a000001 	bne	a3e0144c <DecToLong+0x1c>
a3e01444:	e3a00000 	mov	r0, #0	; 0x0
a3e01448:	e1a0f00e 	mov	pc, lr
a3e0144c:	e3a03000 	mov	r3, #0	; 0x0
a3e01450:	e5813000 	str	r3, [r1]
a3e01454:	e5d03000 	ldrb	r3, [r0]
a3e01458:	e3530000 	cmp	r3, #0	; 0x0
a3e0145c:	0a00000b 	beq	a3e01490 <DecToLong+0x60>
a3e01460:	e2433030 	sub	r3, r3, #48	; 0x30
a3e01464:	e3530009 	cmp	r3, #9	; 0x9
a3e01468:	8afffff5 	bhi	a3e01444 <DecToLong+0x14>
a3e0146c:	e5d02000 	ldrb	r2, [r0]
a3e01470:	e5913000 	ldr	r3, [r1]
a3e01474:	e2422030 	sub	r2, r2, #48	; 0x30
a3e01478:	e0833103 	add	r3, r3, r3, lsl #2
a3e0147c:	e0822083 	add	r2, r2, r3, lsl #1
a3e01480:	e5812000 	str	r2, [r1]
a3e01484:	e5f03001 	ldrb	r3, [r0, #1]!
a3e01488:	e3530000 	cmp	r3, #0	; 0x0
a3e0148c:	1afffff3 	bne	a3e01460 <DecToLong+0x30>
a3e01490:	e3a00001 	mov	r0, #1	; 0x1
a3e01494:	e1a0f00e 	mov	pc, lr

a3e01498 <Power>:
a3e01498:	e1a03000 	mov	r3, r0
a3e0149c:	e2411002 	sub	r1, r1, #2	; 0x2
a3e014a0:	e3710001 	cmn	r1, #1	; 0x1
a3e014a4:	01a0f00e 	moveq	pc, lr
a3e014a8:	e2411001 	sub	r1, r1, #1	; 0x1
a3e014ac:	e3710001 	cmn	r1, #1	; 0x1
a3e014b0:	e0000093 	mul	r0, r3, r0
a3e014b4:	1afffffb 	bne	a3e014a8 <Power+0x10>
a3e014b8:	e1a0f00e 	mov	pc, lr

a3e014bc <ClearLine>:
a3e014bc:	e59f0000 	ldr	r0, [pc, #0]	; a3e014c4 <ClearLine+0x8>
a3e014c0:	eaffff8a 	b	a3e012f0 <printf>
a3e014c4:	a3e05850 	mvnge	r5, #5242880	; 0x500000

a3e014c8 <GetIPAddr>:
a3e014c8:	e24dd014 	sub	sp, sp, #20	; 0x14
a3e014cc:	e3a02000 	mov	r2, #0	; 0x0
a3e014d0:	e1a0100d 	mov	r1, sp
a3e014d4:	e3a00702 	mov	r0, #524288	; 0x80000
a3e014d8:	e7d23000 	ldrb	r3, [r2, r0]
a3e014dc:	e7c13002 	strb	r3, [r1, r2]
a3e014e0:	e2822001 	add	r2, r2, #1	; 0x1
a3e014e4:	e3520013 	cmp	r2, #19	; 0x13
a3e014e8:	dafffffa 	ble	a3e014d8 <GetIPAddr+0x10>
a3e014ec:	e5dd000d 	ldrb	r0, [sp, #13]
a3e014f0:	e5dd300c 	ldrb	r3, [sp, #12]
a3e014f4:	e5dd200e 	ldrb	r2, [sp, #14]
a3e014f8:	e5dd100f 	ldrb	r1, [sp, #15]
a3e014fc:	e5ddc013 	ldrb	ip, [sp, #19]
a3e01500:	e1a00800 	mov	r0, r0, lsl #16
a3e01504:	e1800c03 	orr	r0, r0, r3, lsl #24
a3e01508:	e1800402 	orr	r0, r0, r2, lsl #8
a3e0150c:	e1800001 	orr	r0, r0, r1
a3e01510:	e2003cff 	and	r3, r0, #65280	; 0xff00
a3e01514:	e1a03403 	mov	r3, r3, lsl #8
a3e01518:	e1833c00 	orr	r3, r3, r0, lsl #24
a3e0151c:	e20028ff 	and	r2, r0, #16711680	; 0xff0000
a3e01520:	e1833422 	orr	r3, r3, r2, lsr #8
a3e01524:	e1830c20 	orr	r0, r3, r0, lsr #24
a3e01528:	e5dd2011 	ldrb	r2, [sp, #17]
a3e0152c:	e5dd3010 	ldrb	r3, [sp, #16]
a3e01530:	e5dd1012 	ldrb	r1, [sp, #18]
a3e01534:	e1a02802 	mov	r2, r2, lsl #16
a3e01538:	e1822c03 	orr	r2, r2, r3, lsl #24
a3e0153c:	e1822401 	orr	r2, r2, r1, lsl #8
a3e01540:	e182200c 	orr	r2, r2, ip
a3e01544:	e2023cff 	and	r3, r2, #65280	; 0xff00
a3e01548:	e1a03403 	mov	r3, r3, lsl #8
a3e0154c:	e1833c02 	orr	r3, r3, r2, lsl #24
a3e01550:	e20218ff 	and	r1, r2, #16711680	; 0xff0000
a3e01554:	e1833421 	orr	r3, r3, r1, lsr #8
a3e01558:	e1832c22 	orr	r2, r3, r2, lsr #24
a3e0155c:	e59f100c 	ldr	r1, [pc, #c]	; a3e01570 <GetIPAddr+0xa8>
a3e01560:	e59f300c 	ldr	r3, [pc, #c]	; a3e01574 <GetIPAddr+0xac>
a3e01564:	e5810000 	str	r0, [r1]
a3e01568:	e5832000 	str	r2, [r3]
a3e0156c:	ea000001 	b	a3e01578 <GetIPAddr+0xb0>
a3e01570:	a3e077a8 	mvnge	r7, #44040192	; 0x2a00000
a3e01574:	a3e077ac 	mvnge	r7, #45088768	; 0x2b00000
a3e01578:	e28dd014 	add	sp, sp, #20	; 0x14
a3e0157c:	e1a0f00e 	mov	pc, lr

a3e01580 <smc_set_mac_addr>:
a3e01580:	e3a02000 	mov	r2, #0	; 0x0
a3e01584:	e59f1014 	ldr	r1, [pc, #14]	; a3e015a0 <smc_set_mac_addr+0x20>
a3e01588:	e7d03002 	ldrb	r3, [r0, r2]
a3e0158c:	e7c13002 	strb	r3, [r1, r2]
a3e01590:	e2822001 	add	r2, r2, #1	; 0x1
a3e01594:	e3520005 	cmp	r2, #5	; 0x5
a3e01598:	9afffffa 	bls	a3e01588 <smc_set_mac_addr+0x8>
a3e0159c:	e1a0f00e 	mov	pc, lr
a3e015a0:	a3e07796 	mvnge	r7, #39321600	; 0x2580000

a3e015a4 <dump_memory_info>:
a3e015a4:	e59f101c 	ldr	r1, [pc, #1c]	; a3e015c8 <dump_memory_info+0x24>
a3e015a8:	e59f001c 	ldr	r0, [pc, #1c]	; a3e015cc <dump_memory_info+0x28>
a3e015ac:	e1d120b0 	ldrh	r2, [r1]
a3e015b0:	e3a03000 	mov	r3, #0	; 0x0
a3e015b4:	e1c130b0 	strh	r3, [r1]
a3e015b8:	e1d0c0b0 	ldrh	ip, [r0]
a3e015bc:	e202200f 	and	r2, r2, #15	; 0xf
a3e015c0:	e1c120b0 	strh	r2, [r1]
a3e015c4:	e1a0f00e 	mov	pc, lr
a3e015c8:	0400030e 	streq	r0, [r0], -#782
a3e015cc:	04000308 	streq	r0, [r0], -#776

a3e015d0 <smc_wait_ms>:
a3e015d0:	e59f0000 	ldr	r0, [pc, #0]	; a3e015d8 <smc_wait_ms+0x8>
a3e015d4:	eafffcde 	b	a3e00954 <user_wait>
a3e015d8:	00001770 	andeq	r1, r0, r0, ror r7

a3e015dc <poll4int>:
a3e015dc:	e92d45f0 	stmdb	sp!, {r4, r5, r6, r7, r8, sl, lr}
a3e015e0:	e1a03000 	mov	r3, r0
a3e015e4:	e1a04001 	mov	r4, r1
a3e015e8:	e20370ff 	and	r7, r3, #255	; 0xff
a3e015ec:	e24dd004 	sub	sp, sp, #4	; 0x4
a3e015f0:	e1a0500d 	mov	r5, sp
a3e015f4:	e1a00005 	mov	r0, r5
a3e015f8:	ebfffc8c 	bl	a3e00830 <GetTime>
a3e015fc:	e0644204 	rsb	r4, r4, r4, lsl #4
a3e01600:	e0644204 	rsb	r4, r4, r4, lsl #4
a3e01604:	e0806704 	add	r6, r0, r4, lsl #14
a3e01608:	e3a04000 	mov	r4, #0	; 0x0
a3e0160c:	e1a0a005 	mov	sl, r5
a3e01610:	e59f2040 	ldr	r2, [pc, #40]	; a3e01658 <poll4int+0x7c>
a3e01614:	e59f8040 	ldr	r8, [pc, #40]	; a3e0165c <poll4int+0x80>
a3e01618:	e1d210b0 	ldrh	r1, [r2]
a3e0161c:	e3a03002 	mov	r3, #2	; 0x2
a3e01620:	e1c230b0 	strh	r3, [r2]
a3e01624:	e1a05001 	mov	r5, r1
a3e01628:	e1d830b0 	ldrh	r3, [r8]
a3e0162c:	e1130007 	tst	r3, r7
a3e01630:	1a000004 	bne	a3e01648 <poll4int+0x6c>
a3e01634:	e1a0000a 	mov	r0, sl
a3e01638:	ebfffc7c 	bl	a3e00830 <GetTime>
a3e0163c:	e1500006 	cmp	r0, r6
a3e01640:	3afffff8 	bcc	a3e01628 <poll4int+0x4c>
a3e01644:	e3a04001 	mov	r4, #1	; 0x1
a3e01648:	e59f3008 	ldr	r3, [pc, #8]	; a3e01658 <poll4int+0x7c>
a3e0164c:	e1a00004 	mov	r0, r4
a3e01650:	e1c350b0 	strh	r5, [r3]
a3e01654:	ea000001 	b	a3e01660 <poll4int+0x84>
a3e01658:	0400030e 	streq	r0, [r0], -#782
a3e0165c:	0400030c 	streq	r0, [r0], -#780
a3e01660:	e28dd004 	add	sp, sp, #4	; 0x4
a3e01664:	e8bd85f0 	ldmia	sp!, {r4, r5, r6, r7, r8, sl, pc}

a3e01668 <smc_reset>:
a3e01668:	e92d45f0 	stmdb	sp!, {r4, r5, r6, r7, r8, sl, lr}
a3e0166c:	e3a0000a 	mov	r0, #10	; 0xa
a3e01670:	e3a04000 	mov	r4, #0	; 0x0
a3e01674:	e59f50a4 	ldr	r5, [pc, #a4]	; a3e01720 <smc_reset+0xb8>
a3e01678:	e59f80a4 	ldr	r8, [pc, #a4]	; a3e01724 <smc_reset+0xbc>
a3e0167c:	e3a06902 	mov	r6, #32768	; 0x8000
a3e01680:	e1c540b0 	strh	r4, [r5]
a3e01684:	e1c860b0 	strh	r6, [r8]
a3e01688:	ebffffd0 	bl	a3e015d0 <smc_wait_ms>
a3e0168c:	e59fa094 	ldr	sl, [pc, #94]	; a3e01728 <smc_reset+0xc0>
a3e01690:	e3a07001 	mov	r7, #1	; 0x1
a3e01694:	e1c570b0 	strh	r7, [r5]
a3e01698:	e1ca60b0 	strh	r6, [sl]
a3e0169c:	e1da30b0 	ldrh	r3, [sl]
a3e016a0:	e3a00f96 	mov	r0, #600	; 0x258
a3e016a4:	e1833006 	orr	r3, r3, r6
a3e016a8:	e1ca30b0 	strh	r3, [sl]
a3e016ac:	e1c540b0 	strh	r4, [r5]
a3e016b0:	ebfffca7 	bl	a3e00954 <user_wait>
a3e016b4:	e59f1070 	ldr	r1, [pc, #70]	; a3e0172c <smc_reset+0xc4>
a3e016b8:	e59f2070 	ldr	r2, [pc, #70]	; a3e01730 <smc_reset+0xc8>
a3e016bc:	e3a03002 	mov	r3, #2	; 0x2
a3e016c0:	e1c840b0 	strh	r4, [r8]
a3e016c4:	e1ca40b0 	strh	r4, [sl]
a3e016c8:	e1c570b0 	strh	r7, [r5]
a3e016cc:	e1c120b0 	strh	r2, [r1]
a3e016d0:	e3a02040 	mov	r2, #64	; 0x40
a3e016d4:	e1c530b0 	strh	r3, [r5]
a3e016d8:	e1ca20b0 	strh	r2, [sl]
a3e016dc:	e1da30b0 	ldrh	r3, [sl]
a3e016e0:	e3130001 	tst	r3, #1	; 0x1
a3e016e4:	0a000005 	beq	a3e01700 <smc_reset+0x98>
a3e016e8:	e1a0400a 	mov	r4, sl
a3e016ec:	e3a00064 	mov	r0, #100	; 0x64
a3e016f0:	ebfffc97 	bl	a3e00954 <user_wait>
a3e016f4:	e1d430b0 	ldrh	r3, [r4]
a3e016f8:	e3130001 	tst	r3, #1	; 0x1
a3e016fc:	1afffffa 	bne	a3e016ec <smc_reset+0x84>
a3e01700:	e59f3024 	ldr	r3, [pc, #24]	; a3e0172c <smc_reset+0xc4>
a3e01704:	e1d320b0 	ldrh	r2, [r3]
a3e01708:	e1a02802 	mov	r2, r2, lsl #16
a3e0170c:	e20228ff 	and	r2, r2, #16711680	; 0xff0000
a3e01710:	e1a02822 	mov	r2, r2, lsr #16
a3e01714:	e1c320b0 	strh	r2, [r3]
a3e01718:	e1d310b0 	ldrh	r1, [r3]
a3e0171c:	e8bd85f0 	ldmia	sp!, {r4, r5, r6, r7, r8, sl, pc}
a3e01720:	0400030e 	streq	r0, [r0], -#782
a3e01724:	04000304 	streq	r0, [r0], -#772
a3e01728:	04000300 	streq	r0, [r0], -#768
a3e0172c:	0400030c 	streq	r0, [r0], -#780
a3e01730:	00001210 	andeq	r1, r0, r0, lsl r2

a3e01734 <smc_enable>:
a3e01734:	e59f2020 	ldr	r2, [pc, #20]	; a3e0175c <smc_enable+0x28>
a3e01738:	e59f1020 	ldr	r1, [pc, #20]	; a3e01760 <smc_enable+0x2c>
a3e0173c:	e3a03000 	mov	r3, #0	; 0x0
a3e01740:	e1c230b0 	strh	r3, [r2]
a3e01744:	e2833001 	add	r3, r3, #1	; 0x1
a3e01748:	e242200a 	sub	r2, r2, #10	; 0xa
a3e0174c:	e1c130b0 	strh	r3, [r1]
a3e01750:	e3a03c03 	mov	r3, #768	; 0x300
a3e01754:	e1c230b0 	strh	r3, [r2]
a3e01758:	e1a0f00e 	mov	pc, lr
a3e0175c:	0400030e 	streq	r0, [r0], -#782
a3e01760:	04000300 	streq	r0, [r0], -#768

a3e01764 <smc_shutdown>:
a3e01764:	e59fc054 	ldr	ip, [pc, #54]	; a3e017c0 <smc_shutdown+0x5c>
a3e01768:	e59f0054 	ldr	r0, [pc, #54]	; a3e017c4 <smc_shutdown+0x60>
a3e0176c:	e3a02002 	mov	r2, #2	; 0x2
a3e01770:	e1cc20b0 	strh	r2, [ip]
a3e01774:	e1d030b0 	ldrh	r3, [r0]
a3e01778:	e59f1048 	ldr	r1, [pc, #48]	; a3e017c8 <smc_shutdown+0x64>
a3e0177c:	e1a03803 	mov	r3, r3, lsl #16
a3e01780:	e20338ff 	and	r3, r3, #16711680	; 0xff0000
a3e01784:	e1a03823 	mov	r3, r3, lsr #16
a3e01788:	e1c030b0 	strh	r3, [r0]
a3e0178c:	e1d020b0 	ldrh	r2, [r0]
a3e01790:	e3a02000 	mov	r2, #0	; 0x0
a3e01794:	e1cc20b0 	strh	r2, [ip]
a3e01798:	e1d130b0 	ldrh	r3, [r1]
a3e0179c:	e59f2028 	ldr	r2, [pc, #28]	; a3e017cc <smc_shutdown+0x68>
a3e017a0:	e2033cff 	and	r3, r3, #65280	; 0xff00
a3e017a4:	e1c130b0 	strh	r3, [r1]
a3e017a8:	e1d100b0 	ldrh	r0, [r1]
a3e017ac:	e1d230b0 	ldrh	r3, [r2]
a3e017b0:	e2033cff 	and	r3, r3, #65280	; 0xff00
a3e017b4:	e1c230b0 	strh	r3, [r2]
a3e017b8:	e1d210b0 	ldrh	r1, [r2]
a3e017bc:	e1a0f00e 	mov	pc, lr
a3e017c0:	0400030e 	streq	r0, [r0], -#782
a3e017c4:	0400030c 	streq	r0, [r0], -#780
a3e017c8:	04000304 	streq	r0, [r0], -#772
a3e017cc:	04000300 	streq	r0, [r0], -#768

a3e017d0 <smc_send_packet>:
a3e017d0:	e92d40f0 	stmdb	sp!, {r4, r5, r6, r7, lr}
a3e017d4:	e3a07000 	mov	r7, #0	; 0x0
a3e017d8:	e351003c 	cmp	r1, #60	; 0x3c
a3e017dc:	a1a05001 	movge	r5, r1
a3e017e0:	b3a0503c 	movlt	r5, #60	; 0x3c
a3e017e4:	e59f31bc 	ldr	r3, [pc, #1bc]	; a3e019a8 <smc_send_packet+0x1d8>
a3e017e8:	e1a06000 	mov	r6, r0
a3e017ec:	e0053003 	and	r3, r5, r3
a3e017f0:	e283c006 	add	ip, r3, #6	; 0x6
a3e017f4:	e1a0c44c 	mov	ip, ip, asr #8
a3e017f8:	e35c0007 	cmp	ip, #7	; 0x7
a3e017fc:	da00000b 	ble	a3e01830 <smc_send_packet+0x60>
a3e01800:	e59f01a4 	ldr	r0, [pc, #1a4]	; a3e019ac <smc_send_packet+0x1dc>
a3e01804:	e59f11a4 	ldr	r1, [pc, #1a4]	; a3e019b0 <smc_send_packet+0x1e0>
a3e01808:	ebfffeb8 	bl	a3e012f0 <printf>
a3e0180c:	e3a00000 	mov	r0, #0	; 0x0
a3e01810:	e8bd80f0 	ldmia	sp!, {r4, r5, r6, r7, pc}
a3e01814:	e59f3198 	ldr	r3, [pc, #198]	; a3e019b4 <smc_send_packet+0x1e4>
a3e01818:	e1d320b0 	ldrh	r2, [r3]
a3e0181c:	e2022cff 	and	r2, r2, #65280	; 0xff00
a3e01820:	e3822008 	orr	r2, r2, #8	; 0x8
a3e01824:	e1c320b0 	strh	r2, [r3]
a3e01828:	e1d310b0 	ldrh	r1, [r3]
a3e0182c:	ea000010 	b	a3e01874 <smc_send_packet+0xa4>
a3e01830:	e59f0180 	ldr	r0, [pc, #180]	; a3e019b8 <smc_send_packet+0x1e8>
a3e01834:	e59f2180 	ldr	r2, [pc, #180]	; a3e019bc <smc_send_packet+0x1ec>
a3e01838:	e59f1180 	ldr	r1, [pc, #180]	; a3e019c0 <smc_send_packet+0x1f0>
a3e0183c:	e3a03002 	mov	r3, #2	; 0x2
a3e01840:	e1c230b0 	strh	r3, [r2]
a3e01844:	e38c3020 	orr	r3, ip, #32	; 0x20
a3e01848:	e1c130b0 	strh	r3, [r1]
a3e0184c:	ebfffea7 	bl	a3e012f0 <printf>
a3e01850:	e2877001 	add	r7, r7, #1	; 0x1
a3e01854:	e3a04010 	mov	r4, #16	; 0x10
a3e01858:	e59f1154 	ldr	r1, [pc, #154]	; a3e019b4 <smc_send_packet+0x1e4>
a3e0185c:	e59f215c 	ldr	r2, [pc, #15c]	; a3e019c0 <smc_send_packet+0x1f0>
a3e01860:	e19130b2 	ldrh	r3, [r1, r2]
a3e01864:	e3130008 	tst	r3, #8	; 0x8
a3e01868:	1affffe9 	bne	a3e01814 <smc_send_packet+0x44>
a3e0186c:	e2544001 	subs	r4, r4, #1	; 0x1
a3e01870:	1afffffa 	bne	a3e01860 <smc_send_packet+0x90>
a3e01874:	e3540000 	cmp	r4, #0	; 0x0
a3e01878:	1a000004 	bne	a3e01890 <smc_send_packet+0xc0>
a3e0187c:	e3a00064 	mov	r0, #100	; 0x64
a3e01880:	ebffff52 	bl	a3e015d0 <smc_wait_ms>
a3e01884:	e3570004 	cmp	r7, #4	; 0x4
a3e01888:	dafffff0 	ble	a3e01850 <smc_send_packet+0x80>
a3e0188c:	eaffffde 	b	a3e0180c <smc_send_packet+0x3c>
a3e01890:	e3a0c000 	mov	ip, #0	; 0x0
a3e01894:	e1a0e0c5 	mov	lr, r5, asr #1
a3e01898:	e15c000e 	cmp	ip, lr
a3e0189c:	e59f1120 	ldr	r1, [pc, #120]	; a3e019c4 <smc_send_packet+0x1f4>
a3e018a0:	e59f2120 	ldr	r2, [pc, #120]	; a3e019c8 <smc_send_packet+0x1f8>
a3e018a4:	e1d100b0 	ldrh	r0, [r1]
a3e018a8:	e1d230b0 	ldrh	r3, [r2]
a3e018ac:	e59f1118 	ldr	r1, [pc, #118]	; a3e019cc <smc_send_packet+0x1fc>
a3e018b0:	e2033cff 	and	r3, r3, #65280	; 0xff00
a3e018b4:	e1833420 	orr	r3, r3, r0, lsr #8
a3e018b8:	e1c230b0 	strh	r3, [r2]
a3e018bc:	e1d200b0 	ldrh	r0, [r2]
a3e018c0:	e3a02901 	mov	r2, #16384	; 0x4000
a3e018c4:	e2853006 	add	r3, r5, #6	; 0x6
a3e018c8:	e1a03803 	mov	r3, r3, lsl #16
a3e018cc:	e1c120b0 	strh	r2, [r1]
a3e018d0:	e59f20f8 	ldr	r2, [pc, #f8]	; a3e019d0 <smc_send_packet+0x200>
a3e018d4:	e2050001 	and	r0, r5, #1	; 0x1
a3e018d8:	e5823000 	str	r3, [r2]
a3e018dc:	aa000007 	bge	a3e01900 <smc_send_packet+0x130>
a3e018e0:	e1a01002 	mov	r1, r2
a3e018e4:	e1a0308c 	mov	r3, ip, lsl #1
a3e018e8:	e28cc001 	add	ip, ip, #1	; 0x1
a3e018ec:	e19320b6 	ldrh	r2, [r3, r6]
a3e018f0:	e15c000e 	cmp	ip, lr
a3e018f4:	e1c120b0 	strh	r2, [r1]
a3e018f8:	e1d130b0 	ldrh	r3, [r1]
a3e018fc:	bafffff8 	blt	a3e018e4 <smc_send_packet+0x114>
a3e01900:	e3500000 	cmp	r0, #0	; 0x0
a3e01904:	1a000002 	bne	a3e01914 <smc_send_packet+0x144>
a3e01908:	e59f30c0 	ldr	r3, [pc, #c0]	; a3e019d0 <smc_send_packet+0x200>
a3e0190c:	e1c300b0 	strh	r0, [r3]
a3e01910:	ea000004 	b	a3e01928 <smc_send_packet+0x158>
a3e01914:	e0853006 	add	r3, r5, r6
a3e01918:	e5532001 	ldrb	r2, [r3, -#1]
a3e0191c:	e59f10ac 	ldr	r1, [pc, #ac]	; a3e019d0 <smc_send_packet+0x200>
a3e01920:	e3822a02 	orr	r2, r2, #8192	; 0x2000
a3e01924:	e1c120b0 	strh	r2, [r1]
a3e01928:	e3a00002 	mov	r0, #2	; 0x2
a3e0192c:	e3a0101e 	mov	r1, #30	; 0x1e
a3e01930:	e59f4088 	ldr	r4, [pc, #88]	; a3e019c0 <smc_send_packet+0x1f0>
a3e01934:	e3a030c0 	mov	r3, #192	; 0xc0
a3e01938:	e1c430b0 	strh	r3, [r4]
a3e0193c:	ebffff26 	bl	a3e015dc <poll4int>
a3e01940:	e3500000 	cmp	r0, #0	; 0x0
a3e01944:	0a00000a 	beq	a3e01974 <smc_send_packet+0x1a4>
a3e01948:	e3a030a0 	mov	r3, #160	; 0xa0
a3e0194c:	e1c430b0 	strh	r3, [r4]
a3e01950:	e1d420b0 	ldrh	r2, [r4]
a3e01954:	e3120001 	tst	r2, #1	; 0x1
a3e01958:	0affffab 	beq	a3e0180c <smc_send_packet+0x3c>
a3e0195c:	e3a00f96 	mov	r0, #600	; 0x258
a3e01960:	ebfffbfb 	bl	a3e00954 <user_wait>
a3e01964:	e1d430b0 	ldrh	r3, [r4]
a3e01968:	e3130001 	tst	r3, #1	; 0x1
a3e0196c:	1afffffa 	bne	a3e0195c <smc_send_packet+0x18c>
a3e01970:	eaffffa5 	b	a3e0180c <smc_send_packet+0x3c>
a3e01974:	e3a03002 	mov	r3, #2	; 0x2
a3e01978:	e59f1034 	ldr	r1, [pc, #34]	; a3e019b4 <smc_send_packet+0x1e4>
a3e0197c:	e3a020a0 	mov	r2, #160	; 0xa0
a3e01980:	e1c130b0 	strh	r3, [r1]
a3e01984:	e1c420b0 	strh	r2, [r4]
a3e01988:	ea000001 	b	a3e01994 <smc_send_packet+0x1c4>
a3e0198c:	e3a00f96 	mov	r0, #600	; 0x258
a3e01990:	ebfffbef 	bl	a3e00954 <user_wait>
a3e01994:	e1d430b0 	ldrh	r3, [r4]
a3e01998:	e3130001 	tst	r3, #1	; 0x1
a3e0199c:	1afffffa 	bne	a3e0198c <smc_send_packet+0x1bc>
a3e019a0:	e1a00005 	mov	r0, r5
a3e019a4:	e8bd80f0 	ldmia	sp!, {r4, r5, r6, r7, pc}
a3e019a8:	0000fffe 	streqd	pc, [r0], -lr
a3e019ac:	a3e058d0 	mvnge	r5, #13631488	; 0xd00000
a3e019b0:	a3e058f0 	mvnge	r5, #15728640	; 0xf00000
a3e019b4:	0400030c 	streq	r0, [r0], -#780
a3e019b8:	a3e058fc 	mvnge	r5, #16515072	; 0xfc0000
a3e019bc:	0400030e 	streq	r0, [r0], -#782
a3e019c0:	04000300 	streq	r0, [r0], -#768
a3e019c4:	08000602 	stmeqda	r0, {r1, r9, sl}
a3e019c8:	04000302 	streq	r0, [r0], -#770
a3e019cc:	04000306 	streq	r0, [r0], -#774
a3e019d0:	04000308 	streq	r0, [r0], -#776

a3e019d4 <smc_destructor>:
a3e019d4:	e1a0f00e 	mov	pc, lr

a3e019d8 <smc_open>:
a3e019d8:	e92d4000 	stmdb	sp!, {lr}
a3e019dc:	e59f10a8 	ldr	r1, [pc, #a8]	; a3e01a8c <smc_open+0xb4>
a3e019e0:	e59f00a8 	ldr	r0, [pc, #a8]	; a3e01a90 <smc_open+0xb8>
a3e019e4:	e3a02001 	mov	r2, #1	; 0x1
a3e019e8:	e1c120b0 	strh	r2, [r1]
a3e019ec:	e1d030b0 	ldrh	r3, [r0]
a3e019f0:	e1a031a3 	mov	r3, r3, lsr #3
a3e019f4:	e2033e3e 	and	r3, r3, #992	; 0x3e0
a3e019f8:	e3530c03 	cmp	r3, #768	; 0x300
a3e019fc:	0a000003 	beq	a3e01a10 <smc_open+0x38>
a3e01a00:	e59f008c 	ldr	r0, [pc, #8c]	; a3e01a94 <smc_open+0xbc>
a3e01a04:	ebfffe39 	bl	a3e012f0 <printf>
a3e01a08:	e3a00000 	mov	r0, #0	; 0x0
a3e01a0c:	e8bd8000 	ldmia	sp!, {pc}
a3e01a10:	e59f0080 	ldr	r0, [pc, #80]	; a3e01a98 <smc_open+0xc0>
a3e01a14:	ebfffe35 	bl	a3e012f0 <printf>
a3e01a18:	e3a00000 	mov	r0, #0	; 0x0
a3e01a1c:	e1a0e000 	mov	lr, r0
a3e01a20:	e3a0c702 	mov	ip, #524288	; 0x80000
a3e01a24:	e59f1070 	ldr	r1, [pc, #70]	; a3e01a9c <smc_open+0xc4>
a3e01a28:	e080300e 	add	r3, r0, lr
a3e01a2c:	e7d3200c 	ldrb	r2, [r3, ip]
a3e01a30:	e7c12000 	strb	r2, [r1, r0]
a3e01a34:	e2800001 	add	r0, r0, #1	; 0x1
a3e01a38:	e3500005 	cmp	r0, #5	; 0x5
a3e01a3c:	dafffff9 	ble	a3e01a28 <smc_open+0x50>
a3e01a40:	ebffff08 	bl	a3e01668 <smc_reset>
a3e01a44:	ebffff3a 	bl	a3e01734 <smc_enable>
a3e01a48:	eb000162 	bl	a3e01fd8 <smc_phy_configure>
a3e01a4c:	e3a00000 	mov	r0, #0	; 0x0
a3e01a50:	e59fc044 	ldr	ip, [pc, #44]	; a3e01a9c <smc_open+0xc4>
a3e01a54:	e59fe044 	ldr	lr, [pc, #44]	; a3e01aa0 <smc_open+0xc8>
a3e01a58:	e59f202c 	ldr	r2, [pc, #2c]	; a3e01a8c <smc_open+0xb4>
a3e01a5c:	e3a03001 	mov	r3, #1	; 0x1
a3e01a60:	e1c230b0 	strh	r3, [r2]
a3e01a64:	e2803001 	add	r3, r0, #1	; 0x1
a3e01a68:	e7dc1003 	ldrb	r1, [ip, r3]
a3e01a6c:	e7dc2000 	ldrb	r2, [ip, r0]
a3e01a70:	e1822401 	orr	r2, r2, r1, lsl #8
a3e01a74:	e18020be 	strh	r2, [r0, lr]
a3e01a78:	e2800002 	add	r0, r0, #2	; 0x2
a3e01a7c:	e3500005 	cmp	r0, #5	; 0x5
a3e01a80:	dafffff7 	ble	a3e01a64 <smc_open+0x8c>
a3e01a84:	e3a00000 	mov	r0, #0	; 0x0
a3e01a88:	e8bd8000 	ldmia	sp!, {pc}
a3e01a8c:	0400030e 	streq	r0, [r0], -#782
a3e01a90:	04000302 	streq	r0, [r0], -#770
a3e01a94:	a3e05928 	mvnge	r5, #655360	; 0xa0000
a3e01a98:	a3e05944 	mvnge	r5, #1114112	; 0x110000
a3e01a9c:	a3e07790 	mvnge	r7, #37748736	; 0x2400000
a3e01aa0:	04000304 	streq	r0, [r0], -#772

a3e01aa4 <smc_rcv>:
a3e01aa4:	e92d40f0 	stmdb	sp!, {r4, r5, r6, r7, lr}
a3e01aa8:	e3a03002 	mov	r3, #2	; 0x2
a3e01aac:	e59f10d8 	ldr	r1, [pc, #d8]	; a3e01b8c <smc_rcv+0xe8>
a3e01ab0:	e59f00d8 	ldr	r0, [pc, #d8]	; a3e01b90 <smc_rcv+0xec>
a3e01ab4:	e24dda01 	sub	sp, sp, #4096	; 0x1000
a3e01ab8:	e1c130b0 	strh	r3, [r1]
a3e01abc:	e1d020b0 	ldrh	r2, [r0]
a3e01ac0:	e3a06000 	mov	r6, #0	; 0x0
a3e01ac4:	e3120902 	tst	r2, #32768	; 0x8000
a3e01ac8:	0a000003 	beq	a3e01adc <smc_rcv+0x38>
a3e01acc:	e3a0000a 	mov	r0, #10	; 0xa
a3e01ad0:	ebfffebe 	bl	a3e015d0 <smc_wait_ms>
a3e01ad4:	e3a00000 	mov	r0, #0	; 0x0
a3e01ad8:	ea000050 	b	a3e01c20 <smc_rcv+0x17c>
a3e01adc:	e59f20b0 	ldr	r2, [pc, #b0]	; a3e01b94 <smc_rcv+0xf0>
a3e01ae0:	e59f00b0 	ldr	r0, [pc, #b0]	; a3e01b98 <smc_rcv+0xf4>
a3e01ae4:	e59f40b0 	ldr	r4, [pc, #b0]	; a3e01b9c <smc_rcv+0xf8>
a3e01ae8:	e3a03a0e 	mov	r3, #57344	; 0xe000
a3e01aec:	e1c030b0 	strh	r3, [r0]
a3e01af0:	e5941000 	ldr	r1, [r4]
a3e01af4:	e0012002 	and	r2, r1, r2
a3e01af8:	e1a05822 	mov	r5, r2, lsr #16
a3e01afc:	e3110b2b 	tst	r1, #44032	; 0xac00
a3e01b00:	1a000028 	bne	a3e01ba8 <smc_rcv+0x104>
a3e01b04:	e2453004 	sub	r3, r5, #4	; 0x4
a3e01b08:	e1a03803 	mov	r3, r3, lsl #16
a3e01b0c:	e1a05823 	mov	r5, r3, lsr #16
a3e01b10:	e1a0c006 	mov	ip, r6
a3e01b14:	e1a00923 	mov	r0, r3, lsr #18
a3e01b18:	e1560000 	cmp	r6, r0
a3e01b1c:	e1a0e00d 	mov	lr, sp
a3e01b20:	e1a0700e 	mov	r7, lr
a3e01b24:	aa000007 	bge	a3e01b48 <smc_rcv+0xa4>
a3e01b28:	e1a01004 	mov	r1, r4
a3e01b2c:	e59f206c 	ldr	r2, [pc, #6c]	; a3e01ba0 <smc_rcv+0xfc>
a3e01b30:	e5913000 	ldr	r3, [r1]
a3e01b34:	e78e310c 	str	r3, [lr, ip, lsl #2]
a3e01b38:	e28cc001 	add	ip, ip, #1	; 0x1
a3e01b3c:	e15c0000 	cmp	ip, r0
a3e01b40:	e5923000 	ldr	r3, [r2]
a3e01b44:	bafffff9 	blt	a3e01b30 <smc_rcv+0x8c>
a3e01b48:	e3a01000 	mov	r1, #0	; 0x0
a3e01b4c:	e2052003 	and	r2, r5, #3	; 0x3
a3e01b50:	e59f304c 	ldr	r3, [pc, #4c]	; a3e01ba4 <smc_rcv+0x100>
a3e01b54:	e1510002 	cmp	r1, r2
a3e01b58:	e0053003 	and	r3, r5, r3
a3e01b5c:	e087c003 	add	ip, r7, r3
a3e01b60:	aa000011 	bge	a3e01bac <smc_rcv+0x108>
a3e01b64:	e1a00002 	mov	r0, r2
a3e01b68:	e59fe02c 	ldr	lr, [pc, #2c]	; a3e01b9c <smc_rcv+0xf8>
a3e01b6c:	e59f202c 	ldr	r2, [pc, #2c]	; a3e01ba0 <smc_rcv+0xfc>
a3e01b70:	e19e30b2 	ldrh	r3, [lr, r2]
a3e01b74:	e7cc3001 	strb	r3, [ip, r1]
a3e01b78:	e2811001 	add	r1, r1, #1	; 0x1
a3e01b7c:	e1510000 	cmp	r1, r0
a3e01b80:	e19230b2 	ldrh	r3, [r2, r2]
a3e01b84:	bafffff9 	blt	a3e01b70 <smc_rcv+0xcc>
a3e01b88:	ea000007 	b	a3e01bac <smc_rcv+0x108>
a3e01b8c:	0400030e 	streq	r0, [r0], -#782
a3e01b90:	04000304 	streq	r0, [r0], -#772
a3e01b94:	07ff0000 	ldreqb	r0, [pc, r0]!
a3e01b98:	04000306 	streq	r0, [r0], -#774
a3e01b9c:	04000308 	streq	r0, [r0], -#776
a3e01ba0:	04000300 	streq	r0, [r0], -#768
a3e01ba4:	0000fffc 	streqd	pc, [r0], -ip
a3e01ba8:	e3a06001 	mov	r6, #1	; 0x1
a3e01bac:	e59f2070 	ldr	r2, [pc, #70]	; a3e01c24 <smc_rcv+0x180>
a3e01bb0:	e1d230b0 	ldrh	r3, [r2]
a3e01bb4:	e3130001 	tst	r3, #1	; 0x1
a3e01bb8:	0a000005 	beq	a3e01bd4 <smc_rcv+0x130>
a3e01bbc:	e1a04002 	mov	r4, r2
a3e01bc0:	e3a00064 	mov	r0, #100	; 0x64
a3e01bc4:	ebfffb62 	bl	a3e00954 <user_wait>
a3e01bc8:	e1d430b0 	ldrh	r3, [r4]
a3e01bcc:	e3130001 	tst	r3, #1	; 0x1
a3e01bd0:	1afffffa 	bne	a3e01bc0 <smc_rcv+0x11c>
a3e01bd4:	e59f1048 	ldr	r1, [pc, #48]	; a3e01c24 <smc_rcv+0x180>
a3e01bd8:	e3a03080 	mov	r3, #128	; 0x80
a3e01bdc:	e1c130b0 	strh	r3, [r1]
a3e01be0:	e1d120b0 	ldrh	r2, [r1]
a3e01be4:	e3120001 	tst	r2, #1	; 0x1
a3e01be8:	0a000005 	beq	a3e01c04 <smc_rcv+0x160>
a3e01bec:	e1a04001 	mov	r4, r1
a3e01bf0:	e3a00064 	mov	r0, #100	; 0x64
a3e01bf4:	ebfffb56 	bl	a3e00954 <user_wait>
a3e01bf8:	e1d430b0 	ldrh	r3, [r4]
a3e01bfc:	e3130001 	tst	r3, #1	; 0x1
a3e01c00:	1afffffa 	bne	a3e01bf0 <smc_rcv+0x14c>
a3e01c04:	e3560000 	cmp	r6, #0	; 0x0
a3e01c08:	e3a00000 	mov	r0, #0	; 0x0
a3e01c0c:	1a000003 	bne	a3e01c20 <smc_rcv+0x17c>
a3e01c10:	e1a0000d 	mov	r0, sp
a3e01c14:	e1a01005 	mov	r1, r5
a3e01c18:	eb00016d 	bl	a3e021d4 <RxPacketHandle>
a3e01c1c:	e1a00005 	mov	r0, r5
a3e01c20:	ea000000 	b	a3e01c28 <smc_rcv+0x184>
a3e01c24:	04000300 	streq	r0, [r0], -#768
a3e01c28:	e28dda01 	add	sp, sp, #4096	; 0x1000
a3e01c2c:	e8bd80f0 	ldmia	sp!, {r4, r5, r6, r7, pc}

a3e01c30 <smc_close>:
a3e01c30:	e92d4000 	stmdb	sp!, {lr}
a3e01c34:	ebfffeca 	bl	a3e01764 <smc_shutdown>
a3e01c38:	e3a00000 	mov	r0, #0	; 0x0
a3e01c3c:	e8bd8000 	ldmia	sp!, {pc}

a3e01c40 <smc_read_phy_register>:
a3e01c40:	e20000ff 	and	r0, r0, #255	; 0xff
a3e01c44:	e92d47f0 	stmdb	sp!, {r4, r5, r6, r7, r8, r9, sl, lr}
a3e01c48:	e3a01000 	mov	r1, #0	; 0x0
a3e01c4c:	e1a06001 	mov	r6, r1
a3e01c50:	e3a03009 	mov	r3, #9	; 0x9
a3e01c54:	e3a0401f 	mov	r4, #31	; 0x1f
a3e01c58:	e24dd044 	sub	sp, sp, #68	; 0x44
a3e01c5c:	e28d7004 	add	r7, sp, #4	; 0x4
a3e01c60:	e1a02007 	mov	r2, r7
a3e01c64:	e7c23001 	strb	r3, [r2, r1]
a3e01c68:	e2811001 	add	r1, r1, #1	; 0x1
a3e01c6c:	e2544001 	subs	r4, r4, #1	; 0x1
a3e01c70:	5afffffb 	bpl	a3e01c64 <smc_read_phy_register+0x24>
a3e01c74:	e3a02008 	mov	r2, #8	; 0x8
a3e01c78:	e7c72001 	strb	r2, [r7, r1]
a3e01c7c:	e2811001 	add	r1, r1, #1	; 0x1
a3e01c80:	e3a03009 	mov	r3, #9	; 0x9
a3e01c84:	e7c73001 	strb	r3, [r7, r1]
a3e01c88:	e2811001 	add	r1, r1, #1	; 0x1
a3e01c8c:	e7c73001 	strb	r3, [r7, r1]
a3e01c90:	e2811001 	add	r1, r1, #1	; 0x1
a3e01c94:	e7c72001 	strb	r2, [r7, r1]
a3e01c98:	e2811001 	add	r1, r1, #1	; 0x1
a3e01c9c:	e3a0c010 	mov	ip, #16	; 0x10
a3e01ca0:	e1a0e007 	mov	lr, r7
a3e01ca4:	e1a05003 	mov	r5, r3
a3e01ca8:	e3a04004 	mov	r4, #4	; 0x4
a3e01cac:	e3560000 	cmp	r6, #0	; 0x0
a3e01cb0:	11a0300c 	movne	r3, ip
a3e01cb4:	03a03000 	moveq	r3, #0	; 0x0
a3e01cb8:	e3530000 	cmp	r3, #0	; 0x0
a3e01cbc:	17ce5001 	strneb	r5, [lr, r1]
a3e01cc0:	07ce2001 	streqb	r2, [lr, r1]
a3e01cc4:	e2811001 	add	r1, r1, #1	; 0x1
a3e01cc8:	e1a0c0ac 	mov	ip, ip, lsr #1
a3e01ccc:	e2544001 	subs	r4, r4, #1	; 0x1
a3e01cd0:	5afffff5 	bpl	a3e01cac <smc_read_phy_register+0x6c>
a3e01cd4:	e3a0c010 	mov	ip, #16	; 0x10
a3e01cd8:	e1a03007 	mov	r3, r7
a3e01cdc:	e3a0e009 	mov	lr, #9	; 0x9
a3e01ce0:	e3a02008 	mov	r2, #8	; 0x8
a3e01ce4:	e3a04004 	mov	r4, #4	; 0x4
a3e01ce8:	e110000c 	tst	r0, ip
a3e01cec:	17c3e001 	strneb	lr, [r3, r1]
a3e01cf0:	07c32001 	streqb	r2, [r3, r1]
a3e01cf4:	e2811001 	add	r1, r1, #1	; 0x1
a3e01cf8:	e1a0c0ac 	mov	ip, ip, lsr #1
a3e01cfc:	e2544001 	subs	r4, r4, #1	; 0x1
a3e01d00:	5afffff8 	bpl	a3e01ce8 <smc_read_phy_register+0xa8>
a3e01d04:	e2818001 	add	r8, r1, #1	; 0x1
a3e01d08:	e3a03000 	mov	r3, #0	; 0x0
a3e01d0c:	e7c73001 	strb	r3, [r7, r1]
a3e01d10:	e1a01008 	mov	r1, r8
a3e01d14:	e1a03007 	mov	r3, r7
a3e01d18:	e3a02000 	mov	r2, #0	; 0x0
a3e01d1c:	e3a0400f 	mov	r4, #15	; 0xf
a3e01d20:	e7c32001 	strb	r2, [r3, r1]
a3e01d24:	e2811001 	add	r1, r1, #1	; 0x1
a3e01d28:	e2544001 	subs	r4, r4, #1	; 0x1
a3e01d2c:	5afffffb 	bpl	a3e01d20 <smc_read_phy_register+0xe0>
a3e01d30:	e3a03000 	mov	r3, #0	; 0x0
a3e01d34:	e1a04003 	mov	r4, r3
a3e01d38:	e1a06007 	mov	r6, r7
a3e01d3c:	e7c73001 	strb	r3, [r7, r1]
a3e01d40:	e59f90c0 	ldr	r9, [pc, #c0]	; a3e01e08 <smc_read_phy_register+0x1c8>
a3e01d44:	e59f10c0 	ldr	r1, [pc, #c0]	; a3e01e0c <smc_read_phy_register+0x1cc>
a3e01d48:	e59f00c0 	ldr	r0, [pc, #c0]	; a3e01e10 <smc_read_phy_register+0x1d0>
a3e01d4c:	e1d1c0b0 	ldrh	ip, [r1]
a3e01d50:	e2833003 	add	r3, r3, #3	; 0x3
a3e01d54:	e1c130b0 	strh	r3, [r1]
a3e01d58:	e1d020b0 	ldrh	r2, [r0]
a3e01d5c:	e1a0a000 	mov	sl, r0
a3e01d60:	e3c2500f 	bic	r5, r2, #15	; 0xf
a3e01d64:	e1a05805 	mov	r5, r5, lsl #16
a3e01d68:	e1a05825 	mov	r5, r5, lsr #16
a3e01d6c:	e58dc000 	str	ip, [sp]
a3e01d70:	e7d63004 	ldrb	r3, [r6, r4]
a3e01d74:	e1a00009 	mov	r0, r9
a3e01d78:	e1853003 	orr	r3, r5, r3
a3e01d7c:	e1ca30b0 	strh	r3, [sl]
a3e01d80:	ebfffaf3 	bl	a3e00954 <user_wait>
a3e01d84:	e7d63004 	ldrb	r3, [r6, r4]
a3e01d88:	e1a00009 	mov	r0, r9
a3e01d8c:	e1853003 	orr	r3, r5, r3
a3e01d90:	e3833004 	orr	r3, r3, #4	; 0x4
a3e01d94:	e1ca30b0 	strh	r3, [sl]
a3e01d98:	ebfffaed 	bl	a3e00954 <user_wait>
a3e01d9c:	e1da30b0 	ldrh	r3, [sl]
a3e01da0:	e7d62004 	ldrb	r2, [r6, r4]
a3e01da4:	e2033002 	and	r3, r3, #2	; 0x2
a3e01da8:	e1822003 	orr	r2, r2, r3
a3e01dac:	e7c62004 	strb	r2, [r6, r4]
a3e01db0:	e2844001 	add	r4, r4, #1	; 0x1
a3e01db4:	e354003f 	cmp	r4, #63	; 0x3f
a3e01db8:	9affffec 	bls	a3e01d70 <smc_read_phy_register+0x130>
a3e01dbc:	e1a00009 	mov	r0, r9
a3e01dc0:	e59f3048 	ldr	r3, [pc, #48]	; a3e01e10 <smc_read_phy_register+0x1d0>
a3e01dc4:	e3a0400f 	mov	r4, #15	; 0xf
a3e01dc8:	e1c350b0 	strh	r5, [r3]
a3e01dcc:	ebfffae0 	bl	a3e00954 <user_wait>
a3e01dd0:	e3a00000 	mov	r0, #0	; 0x0
a3e01dd4:	e59f3030 	ldr	r3, [pc, #30]	; a3e01e0c <smc_read_phy_register+0x1cc>
a3e01dd8:	e59d2000 	ldr	r2, [sp]
a3e01ddc:	e1a01007 	mov	r1, r7
a3e01de0:	e1c320b0 	strh	r2, [r3]
a3e01de4:	e1a03880 	mov	r3, r0, lsl #17
a3e01de8:	e1a00823 	mov	r0, r3, lsr #16
a3e01dec:	e7d12008 	ldrb	r2, [r1, r8]
a3e01df0:	e2888001 	add	r8, r8, #1	; 0x1
a3e01df4:	e3120002 	tst	r2, #2	; 0x2
a3e01df8:	13800001 	orrne	r0, r0, #1	; 0x1
a3e01dfc:	e2544001 	subs	r4, r4, #1	; 0x1
a3e01e00:	5afffff7 	bpl	a3e01de4 <smc_read_phy_register+0x1a4>
a3e01e04:	ea000002 	b	a3e01e14 <smc_read_phy_register+0x1d4>
a3e01e08:	00001770 	andeq	r1, r0, r0, ror r7
a3e01e0c:	0400030e 	streq	r0, [r0], -#782
a3e01e10:	04000308 	streq	r0, [r0], -#776
a3e01e14:	e28dd044 	add	sp, sp, #68	; 0x44
a3e01e18:	e8bd87f0 	ldmia	sp!, {r4, r5, r6, r7, r8, r9, sl, pc}

a3e01e1c <smc_write_phy_register>:
a3e01e1c:	e20000ff 	and	r0, r0, #255	; 0xff
a3e01e20:	e1a01801 	mov	r1, r1, lsl #16
a3e01e24:	e92d45f0 	stmdb	sp!, {r4, r5, r6, r7, r8, sl, lr}
a3e01e28:	e1a07821 	mov	r7, r1, lsr #16
a3e01e2c:	e3a0c000 	mov	ip, #0	; 0x0
a3e01e30:	e1a0600c 	mov	r6, ip
a3e01e34:	e3a03009 	mov	r3, #9	; 0x9
a3e01e38:	e3a0401f 	mov	r4, #31	; 0x1f
a3e01e3c:	e24dd044 	sub	sp, sp, #68	; 0x44
a3e01e40:	e1a0100d 	mov	r1, sp
a3e01e44:	e1a02001 	mov	r2, r1
a3e01e48:	e7c2300c 	strb	r3, [r2, ip]
a3e01e4c:	e28cc001 	add	ip, ip, #1	; 0x1
a3e01e50:	e2544001 	subs	r4, r4, #1	; 0x1
a3e01e54:	5afffffb 	bpl	a3e01e48 <smc_write_phy_register+0x2c>
a3e01e58:	e3a02008 	mov	r2, #8	; 0x8
a3e01e5c:	e7c1200c 	strb	r2, [r1, ip]
a3e01e60:	e28cc001 	add	ip, ip, #1	; 0x1
a3e01e64:	e3a03009 	mov	r3, #9	; 0x9
a3e01e68:	e7c1300c 	strb	r3, [r1, ip]
a3e01e6c:	e28cc001 	add	ip, ip, #1	; 0x1
a3e01e70:	e7c1200c 	strb	r2, [r1, ip]
a3e01e74:	e28cc001 	add	ip, ip, #1	; 0x1
a3e01e78:	e7c1300c 	strb	r3, [r1, ip]
a3e01e7c:	e28cc001 	add	ip, ip, #1	; 0x1
a3e01e80:	e3a0e010 	mov	lr, #16	; 0x10
a3e01e84:	e1a05001 	mov	r5, r1
a3e01e88:	e3a04004 	mov	r4, #4	; 0x4
a3e01e8c:	e116000e 	tst	r6, lr
a3e01e90:	17c5300c 	strneb	r3, [r5, ip]
a3e01e94:	07c5200c 	streqb	r2, [r5, ip]
a3e01e98:	e28cc001 	add	ip, ip, #1	; 0x1
a3e01e9c:	e1a0e0ae 	mov	lr, lr, lsr #1
a3e01ea0:	e2544001 	subs	r4, r4, #1	; 0x1
a3e01ea4:	5afffff8 	bpl	a3e01e8c <smc_write_phy_register+0x70>
a3e01ea8:	e3a0e010 	mov	lr, #16	; 0x10
a3e01eac:	e1a03001 	mov	r3, r1
a3e01eb0:	e3a05009 	mov	r5, #9	; 0x9
a3e01eb4:	e3a02008 	mov	r2, #8	; 0x8
a3e01eb8:	e3a04004 	mov	r4, #4	; 0x4
a3e01ebc:	e110000e 	tst	r0, lr
a3e01ec0:	17c3500c 	strneb	r5, [r3, ip]
a3e01ec4:	07c3200c 	streqb	r2, [r3, ip]
a3e01ec8:	e28cc001 	add	ip, ip, #1	; 0x1
a3e01ecc:	e1a0e0ae 	mov	lr, lr, lsr #1
a3e01ed0:	e2544001 	subs	r4, r4, #1	; 0x1
a3e01ed4:	5afffff8 	bpl	a3e01ebc <smc_write_phy_register+0xa0>
a3e01ed8:	e3a03000 	mov	r3, #0	; 0x0
a3e01edc:	e7c1300c 	strb	r3, [r1, ip]
a3e01ee0:	e28cc001 	add	ip, ip, #1	; 0x1
a3e01ee4:	e7c1300c 	strb	r3, [r1, ip]
a3e01ee8:	e28cc001 	add	ip, ip, #1	; 0x1
a3e01eec:	e3a0e902 	mov	lr, #32768	; 0x8000
a3e01ef0:	e1a03001 	mov	r3, r1
a3e01ef4:	e3a00009 	mov	r0, #9	; 0x9
a3e01ef8:	e3a02008 	mov	r2, #8	; 0x8
a3e01efc:	e3a0400f 	mov	r4, #15	; 0xf
a3e01f00:	e117000e 	tst	r7, lr
a3e01f04:	17c3000c 	strneb	r0, [r3, ip]
a3e01f08:	07c3200c 	streqb	r2, [r3, ip]
a3e01f0c:	e28cc001 	add	ip, ip, #1	; 0x1
a3e01f10:	e1a0e0ae 	mov	lr, lr, lsr #1
a3e01f14:	e2544001 	subs	r4, r4, #1	; 0x1
a3e01f18:	5afffff8 	bpl	a3e01f00 <smc_write_phy_register+0xe4>
a3e01f1c:	e3a03000 	mov	r3, #0	; 0x0
a3e01f20:	e1a04003 	mov	r4, r3
a3e01f24:	e1a06001 	mov	r6, r1
a3e01f28:	e7c1300c 	strb	r3, [r1, ip]
a3e01f2c:	e2833003 	add	r3, r3, #3	; 0x3
a3e01f30:	e59f808c 	ldr	r8, [pc, #8c]	; a3e01fc4 <smc_write_phy_register+0x1a8>
a3e01f34:	e59f108c 	ldr	r1, [pc, #8c]	; a3e01fc8 <smc_write_phy_register+0x1ac>
a3e01f38:	e59f008c 	ldr	r0, [pc, #8c]	; a3e01fcc <smc_write_phy_register+0x1b0>
a3e01f3c:	e1d1c0b0 	ldrh	ip, [r1]
a3e01f40:	e1a07000 	mov	r7, r0
a3e01f44:	e1c130b0 	strh	r3, [r1]
a3e01f48:	e1d020b0 	ldrh	r2, [r0]
a3e01f4c:	e1a0a00c 	mov	sl, ip
a3e01f50:	e3c2500f 	bic	r5, r2, #15	; 0xf
a3e01f54:	e1a05805 	mov	r5, r5, lsl #16
a3e01f58:	e1a05825 	mov	r5, r5, lsr #16
a3e01f5c:	e7d63004 	ldrb	r3, [r6, r4]
a3e01f60:	e1a00008 	mov	r0, r8
a3e01f64:	e1853003 	orr	r3, r5, r3
a3e01f68:	e1c730b0 	strh	r3, [r7]
a3e01f6c:	ebfffa78 	bl	a3e00954 <user_wait>
a3e01f70:	e7d63004 	ldrb	r3, [r6, r4]
a3e01f74:	e1a00008 	mov	r0, r8
a3e01f78:	e1853003 	orr	r3, r5, r3
a3e01f7c:	e3833004 	orr	r3, r3, #4	; 0x4
a3e01f80:	e1c730b0 	strh	r3, [r7]
a3e01f84:	ebfffa72 	bl	a3e00954 <user_wait>
a3e01f88:	e1d730b0 	ldrh	r3, [r7]
a3e01f8c:	e7d62004 	ldrb	r2, [r6, r4]
a3e01f90:	e2033002 	and	r3, r3, #2	; 0x2
a3e01f94:	e1822003 	orr	r2, r2, r3
a3e01f98:	e7c62004 	strb	r2, [r6, r4]
a3e01f9c:	e2844001 	add	r4, r4, #1	; 0x1
a3e01fa0:	e3540040 	cmp	r4, #64	; 0x40
a3e01fa4:	9affffec 	bls	a3e01f5c <smc_write_phy_register+0x140>
a3e01fa8:	e59f301c 	ldr	r3, [pc, #1c]	; a3e01fcc <smc_write_phy_register+0x1b0>
a3e01fac:	e1a00008 	mov	r0, r8
a3e01fb0:	e1c350b0 	strh	r5, [r3]
a3e01fb4:	ebfffa66 	bl	a3e00954 <user_wait>
a3e01fb8:	e59f3008 	ldr	r3, [pc, #8]	; a3e01fc8 <smc_write_phy_register+0x1ac>
a3e01fbc:	e1c3a0b0 	strh	sl, [r3]
a3e01fc0:	ea000002 	b	a3e01fd0 <smc_write_phy_register+0x1b4>
a3e01fc4:	00001770 	andeq	r1, r0, r0, ror r7
a3e01fc8:	0400030e 	streq	r0, [r0], -#782
a3e01fcc:	04000308 	streq	r0, [r0], -#776
a3e01fd0:	e28dd044 	add	sp, sp, #68	; 0x44
a3e01fd4:	e8bd85f0 	ldmia	sp!, {r4, r5, r6, r7, r8, sl, pc}

a3e01fd8 <smc_phy_configure>:
a3e01fd8:	e92d40f0 	stmdb	sp!, {r4, r5, r6, r7, lr}
a3e01fdc:	e3a05000 	mov	r5, #0	; 0x0
a3e01fe0:	e1a00005 	mov	r0, r5
a3e01fe4:	e3a01902 	mov	r1, #32768	; 0x8000
a3e01fe8:	ebffff8b 	bl	a3e01e1c <smc_write_phy_register>
a3e01fec:	e3a04006 	mov	r4, #6	; 0x6
a3e01ff0:	ea000001 	b	a3e01ffc <smc_phy_configure+0x24>
a3e01ff4:	e3a00f7d 	mov	r0, #500	; 0x1f4
a3e01ff8:	ebfffd74 	bl	a3e015d0 <smc_wait_ms>
a3e01ffc:	e2444001 	sub	r4, r4, #1	; 0x1
a3e02000:	e3740001 	cmn	r4, #1	; 0x1
a3e02004:	0a000003 	beq	a3e02018 <smc_phy_configure+0x40>
a3e02008:	e3a00000 	mov	r0, #0	; 0x0
a3e0200c:	ebffff0b 	bl	a3e01c40 <smc_read_phy_register>
a3e02010:	e3100902 	tst	r0, #32768	; 0x8000
a3e02014:	1afffff6 	bne	a3e01ff4 <smc_phy_configure+0x1c>
a3e02018:	e3540000 	cmp	r4, #0	; 0x0
a3e0201c:	ca000003 	bgt	a3e02030 <smc_phy_configure+0x58>
a3e02020:	e59f0078 	ldr	r0, [pc, #78]	; a3e020a0 <smc_phy_configure+0xc8>
a3e02024:	e59f1078 	ldr	r1, [pc, #78]	; a3e020a4 <smc_phy_configure+0xcc>
a3e02028:	e8bd40f0 	ldmia	sp!, {r4, r5, r6, r7, lr}
a3e0202c:	eafffcaf 	b	a3e012f0 <printf>
a3e02030:	e3a00001 	mov	r0, #1	; 0x1
a3e02034:	e59f306c 	ldr	r3, [pc, #6c]	; a3e020a8 <smc_phy_configure+0xd0>
a3e02038:	e59f706c 	ldr	r7, [pc, #6c]	; a3e020ac <smc_phy_configure+0xd4>
a3e0203c:	e59f606c 	ldr	r6, [pc, #6c]	; a3e020b0 <smc_phy_configure+0xd8>
a3e02040:	e3a04000 	mov	r4, #0	; 0x0
a3e02044:	e1c340b0 	strh	r4, [r3]
a3e02048:	e1c760b0 	strh	r6, [r7]
a3e0204c:	ebfffefb 	bl	a3e01c40 <smc_read_phy_register>
a3e02050:	e3a01001 	mov	r1, #1	; 0x1
a3e02054:	e1a00800 	mov	r0, r0, lsl #16
a3e02058:	e1500004 	cmp	r0, r4
a3e0205c:	e1a00820 	mov	r0, r0, lsr #16
a3e02060:	b3811c02 	orrlt	r1, r1, #512	; 0x200
a3e02064:	e3100901 	tst	r0, #16384	; 0x4000
a3e02068:	13811c01 	orrne	r1, r1, #256	; 0x100
a3e0206c:	e3100a02 	tst	r0, #8192	; 0x2000
a3e02070:	13811080 	orrne	r1, r1, #128	; 0x80
a3e02074:	e3100a01 	tst	r0, #4096	; 0x1000
a3e02078:	13811040 	orrne	r1, r1, #64	; 0x40
a3e0207c:	e3100b02 	tst	r0, #2048	; 0x800
a3e02080:	13811020 	orrne	r1, r1, #32	; 0x20
a3e02084:	e3a00004 	mov	r0, #4	; 0x4
a3e02088:	ebffff63 	bl	a3e01e1c <smc_write_phy_register>
a3e0208c:	e1a00004 	mov	r0, r4
a3e02090:	e3a01c12 	mov	r1, #4608	; 0x1200
a3e02094:	ebffff60 	bl	a3e01e1c <smc_write_phy_register>
a3e02098:	e1c760b0 	strh	r6, [r7]
a3e0209c:	e8bd80f0 	ldmia	sp!, {r4, r5, r6, r7, pc}
a3e020a0:	a3e0598c 	mvnge	r5, #2293760	; 0x230000
a3e020a4:	a3e058f0 	mvnge	r5, #15728640	; 0xf00000
a3e020a8:	0400030e 	streq	r0, [r0], -#782
a3e020ac:	0400030a 	streq	r0, [r0], -#778
a3e020b0:	00003810 	andeq	r3, r0, r0, lsl r8

a3e020b4 <eth_init>:
a3e020b4:	e92d4000 	stmdb	sp!, {lr}
a3e020b8:	ebfffe46 	bl	a3e019d8 <smc_open>
a3e020bc:	e3a00000 	mov	r0, #0	; 0x0
a3e020c0:	e8bd8000 	ldmia	sp!, {pc}

a3e020c4 <eth_halt>:
a3e020c4:	eafffed9 	b	a3e01c30 <smc_close>

a3e020c8 <eth_rx>:
a3e020c8:	e3a00000 	mov	r0, #0	; 0x0
a3e020cc:	e1a0f00e 	mov	pc, lr

a3e020d0 <eth_send>:
a3e020d0:	e92d4000 	stmdb	sp!, {lr}
a3e020d4:	ebfffdbd 	bl	a3e017d0 <smc_send_packet>
a3e020d8:	e3a00001 	mov	r0, #1	; 0x1
a3e020dc:	e8bd8000 	ldmia	sp!, {pc}

a3e020e0 <TxPacket>:
a3e020e0:	e92d4000 	stmdb	sp!, {lr}
a3e020e4:	e8bd4000 	ldmia	sp!, {lr}
a3e020e8:	eafffff8 	b	a3e020d0 <eth_send>

a3e020ec <RxPacket>:
a3e020ec:	e92d4000 	stmdb	sp!, {lr}
a3e020f0:	e8bd4000 	ldmia	sp!, {lr}
a3e020f4:	eafffe6a 	b	a3e01aa4 <smc_rcv>

a3e020f8 <NetInit>:
a3e020f8:	e92d4000 	stmdb	sp!, {lr}
a3e020fc:	e8bd4000 	ldmia	sp!, {lr}
a3e02100:	eaffffeb 	b	a3e020b4 <eth_init>

a3e02104 <SendArpRequest>:
a3e02104:	e92d40f0 	stmdb	sp!, {r4, r5, r6, r7, lr}
a3e02108:	e3a02006 	mov	r2, #6	; 0x6
a3e0210c:	e59f40a0 	ldr	r4, [pc, #a0]	; a3e021b4 <SendArpRequest+0xb0>
a3e02110:	e59f10a0 	ldr	r1, [pc, #a0]	; a3e021b8 <SendArpRequest+0xb4>
a3e02114:	e24dd004 	sub	sp, sp, #4	; 0x4
a3e02118:	e58d0000 	str	r0, [sp]
a3e0211c:	e1a00004 	mov	r0, r4
a3e02120:	ebfff9eb 	bl	a3e008d4 <MemCpy>
a3e02124:	e2840006 	add	r0, r4, #6	; 0x6
a3e02128:	e59f708c 	ldr	r7, [pc, #8c]	; a3e021bc <SendArpRequest+0xb8>
a3e0212c:	e3a02006 	mov	r2, #6	; 0x6
a3e02130:	e1a01007 	mov	r1, r7
a3e02134:	ebfff9e6 	bl	a3e008d4 <MemCpy>
a3e02138:	e3a03008 	mov	r3, #8	; 0x8
a3e0213c:	e2840020 	add	r0, r4, #32	; 0x20
a3e02140:	e3a06006 	mov	r6, #6	; 0x6
a3e02144:	e1a02006 	mov	r2, r6
a3e02148:	e3a0cc01 	mov	ip, #256	; 0x100
a3e0214c:	e1c431b0 	strh	r3, [r4, #16]
a3e02150:	e59f1068 	ldr	r1, [pc, #68]	; a3e021c0 <SendArpRequest+0xbc>
a3e02154:	e59f3068 	ldr	r3, [pc, #68]	; a3e021c4 <SendArpRequest+0xc0>
a3e02158:	e3a05004 	mov	r5, #4	; 0x4
a3e0215c:	e1c4c0be 	strh	ip, [r4, #14]
a3e02160:	e5c46012 	strb	r6, [r4, #18]
a3e02164:	e5c45013 	strb	r5, [r4, #19]
a3e02168:	e1c4c1b4 	strh	ip, [r4, #20]
a3e0216c:	e1c430bc 	strh	r3, [r4, #12]
a3e02170:	ebfff9d7 	bl	a3e008d4 <MemCpy>
a3e02174:	e2840026 	add	r0, r4, #38	; 0x26
a3e02178:	e1a0100d 	mov	r1, sp
a3e0217c:	e1a02005 	mov	r2, r5
a3e02180:	ebfff9d3 	bl	a3e008d4 <MemCpy>
a3e02184:	e2840016 	add	r0, r4, #22	; 0x16
a3e02188:	e1a01007 	mov	r1, r7
a3e0218c:	e1a02006 	mov	r2, r6
a3e02190:	ebfff9cf 	bl	a3e008d4 <MemCpy>
a3e02194:	e284001c 	add	r0, r4, #28	; 0x1c
a3e02198:	e59f1028 	ldr	r1, [pc, #28]	; a3e021c8 <SendArpRequest+0xc4>
a3e0219c:	e1a02005 	mov	r2, r5
a3e021a0:	ebfff9cb 	bl	a3e008d4 <MemCpy>
a3e021a4:	e1a00004 	mov	r0, r4
a3e021a8:	e3a0102a 	mov	r1, #42	; 0x2a
a3e021ac:	ebffffcb 	bl	a3e020e0 <TxPacket>
a3e021b0:	ea000005 	b	a3e021cc <SendArpRequest+0xc8>
a3e021b4:	a3e07890 	mvnge	r7, #9437184	; 0x900000
a3e021b8:	a3e077a2 	mvnge	r7, #42467328	; 0x2880000
a3e021bc:	a3e07790 	mvnge	r7, #37748736	; 0x2400000
a3e021c0:	a3e059c4 	mvnge	r5, #3211264	; 0x310000
a3e021c4:	00000608 	andeq	r0, r0, r8, lsl #12
a3e021c8:	a3e077ac 	mvnge	r7, #45088768	; 0x2b00000
a3e021cc:	e28dd004 	add	sp, sp, #4	; 0x4
a3e021d0:	e8bd80f0 	ldmia	sp!, {r4, r5, r6, r7, pc}

a3e021d4 <RxPacketHandle>:
a3e021d4:	e92d47f0 	stmdb	sp!, {r4, r5, r6, r7, r8, r9, sl, lr}
a3e021d8:	e1a07000 	mov	r7, r0
a3e021dc:	e287400e 	add	r4, r7, #14	; 0xe
a3e021e0:	e24dd008 	sub	sp, sp, #8	; 0x8
a3e021e4:	e1d720bc 	ldrh	r2, [r7, #12]
a3e021e8:	e2875022 	add	r5, r7, #34	; 0x22
a3e021ec:	e1a03422 	mov	r3, r2, lsr #8
a3e021f0:	e1a03803 	mov	r3, r3, lsl #16
a3e021f4:	e1833c02 	orr	r3, r3, r2, lsl #24
a3e021f8:	e1a02823 	mov	r2, r3, lsr #16
a3e021fc:	e3520b02 	cmp	r2, #2048	; 0x800
a3e02200:	0a000068 	beq	a3e023a8 <RxPacketHandle+0x1d4>
a3e02204:	e59f32a4 	ldr	r3, [pc, #2a4]	; a3e024b0 <RxPacketHandle+0x2dc>
a3e02208:	e1520003 	cmp	r2, r3
a3e0220c:	1a0000e6 	bne	a3e025ac <RxPacketHandle+0x3d8>
a3e02210:	e351001b 	cmp	r1, #27	; 0x1b
a3e02214:	da0000e4 	ble	a3e025ac <RxPacketHandle+0x3d8>
a3e02218:	e1d730be 	ldrh	r3, [r7, #14]
a3e0221c:	e5d7200e 	ldrb	r2, [r7, #14]
a3e02220:	e1a03423 	mov	r3, r3, lsr #8
a3e02224:	e1835402 	orr	r5, r3, r2, lsl #8
a3e02228:	e3550001 	cmp	r5, #1	; 0x1
a3e0222c:	1a0000de 	bne	a3e025ac <RxPacketHandle+0x3d8>
a3e02230:	e1d430b2 	ldrh	r3, [r4, #2]
a3e02234:	e5d42002 	ldrb	r2, [r4, #2]
a3e02238:	e1a03423 	mov	r3, r3, lsr #8
a3e0223c:	e1833402 	orr	r3, r3, r2, lsl #8
a3e02240:	e3530b02 	cmp	r3, #2048	; 0x800
a3e02244:	1a0000d8 	bne	a3e025ac <RxPacketHandle+0x3d8>
a3e02248:	e5d48004 	ldrb	r8, [r4, #4]
a3e0224c:	e3580006 	cmp	r8, #6	; 0x6
a3e02250:	1a0000d5 	bne	a3e025ac <RxPacketHandle+0x3d8>
a3e02254:	e5d4a005 	ldrb	sl, [r4, #5]
a3e02258:	e35a0004 	cmp	sl, #4	; 0x4
a3e0225c:	1a0000d2 	bne	a3e025ac <RxPacketHandle+0x3d8>
a3e02260:	e1d430b6 	ldrh	r3, [r4, #6]
a3e02264:	e5d42006 	ldrb	r2, [r4, #6]
a3e02268:	e1a03423 	mov	r3, r3, lsr #8
a3e0226c:	e1830402 	orr	r0, r3, r2, lsl #8
a3e02270:	e3500001 	cmp	r0, #1	; 0x1
a3e02274:	1a000038 	bne	a3e0235c <RxPacketHandle+0x188>
a3e02278:	e59f9234 	ldr	r9, [pc, #234]	; a3e024b4 <RxPacketHandle+0x2e0>
a3e0227c:	e5993000 	ldr	r3, [r9]
a3e02280:	e3530000 	cmp	r3, #0	; 0x0
a3e02284:	0a0000c8 	beq	a3e025ac <RxPacketHandle+0x3d8>
a3e02288:	e2874026 	add	r4, r7, #38	; 0x26
a3e0228c:	e1a00004 	mov	r0, r4
a3e02290:	e1a01009 	mov	r1, r9
a3e02294:	e1a0200a 	mov	r2, sl
a3e02298:	ebfff99e 	bl	a3e00918 <MemCmp>
a3e0229c:	e3500000 	cmp	r0, #0	; 0x0
a3e022a0:	1a0000c1 	bne	a3e025ac <RxPacketHandle+0x3d8>
a3e022a4:	e1a00007 	mov	r0, r7
a3e022a8:	e2875016 	add	r5, r7, #22	; 0x16
a3e022ac:	e1a01005 	mov	r1, r5
a3e022b0:	e1a02008 	mov	r2, r8
a3e022b4:	ebfff986 	bl	a3e008d4 <MemCpy>
a3e022b8:	e2870006 	add	r0, r7, #6	; 0x6
a3e022bc:	e59f61f4 	ldr	r6, [pc, #1f4]	; a3e024b8 <RxPacketHandle+0x2e4>
a3e022c0:	e1a02008 	mov	r2, r8
a3e022c4:	e1a01006 	mov	r1, r6
a3e022c8:	ebfff981 	bl	a3e008d4 <MemCpy>
a3e022cc:	e3a03c01 	mov	r3, #256	; 0x100
a3e022d0:	e1c730be 	strh	r3, [r7, #14]
a3e022d4:	e3a03008 	mov	r3, #8	; 0x8
a3e022d8:	e1c731b0 	strh	r3, [r7, #16]
a3e022dc:	e3a03c02 	mov	r3, #512	; 0x200
a3e022e0:	e2870020 	add	r0, r7, #32	; 0x20
a3e022e4:	e1a01005 	mov	r1, r5
a3e022e8:	e1c731b4 	strh	r3, [r7, #20]
a3e022ec:	e59f31c8 	ldr	r3, [pc, #1c8]	; a3e024bc <RxPacketHandle+0x2e8>
a3e022f0:	e1a02008 	mov	r2, r8
a3e022f4:	e5c78012 	strb	r8, [r7, #18]
a3e022f8:	e5c7a013 	strb	sl, [r7, #19]
a3e022fc:	e1c730bc 	strh	r3, [r7, #12]
a3e02300:	ebfff973 	bl	a3e008d4 <MemCpy>
a3e02304:	e1a00004 	mov	r0, r4
a3e02308:	e287401c 	add	r4, r7, #28	; 0x1c
a3e0230c:	e1a01004 	mov	r1, r4
a3e02310:	e1a0200a 	mov	r2, sl
a3e02314:	ebfff96e 	bl	a3e008d4 <MemCpy>
a3e02318:	e1a00005 	mov	r0, r5
a3e0231c:	e1a01006 	mov	r1, r6
a3e02320:	e1a02008 	mov	r2, r8
a3e02324:	ebfff96a 	bl	a3e008d4 <MemCpy>
a3e02328:	e1a00004 	mov	r0, r4
a3e0232c:	e1a01009 	mov	r1, r9
a3e02330:	e1a0200a 	mov	r2, sl
a3e02334:	ebfff966 	bl	a3e008d4 <MemCpy>
a3e02338:	e59f4180 	ldr	r4, [pc, #180]	; a3e024c0 <RxPacketHandle+0x2ec>
a3e0233c:	e28d0004 	add	r0, sp, #4	; 0x4
a3e02340:	ebfff93a 	bl	a3e00830 <GetTime>
a3e02344:	e2803005 	add	r3, r0, #5	; 0x5
a3e02348:	e1a00007 	mov	r0, r7
a3e0234c:	e3a0102a 	mov	r1, #42	; 0x2a
a3e02350:	e5843000 	str	r3, [r4]
a3e02354:	ebffff5d 	bl	a3e020d0 <eth_send>
a3e02358:	ea000093 	b	a3e025ac <RxPacketHandle+0x3d8>
a3e0235c:	e3500002 	cmp	r0, #2	; 0x2
a3e02360:	1a000091 	bne	a3e025ac <RxPacketHandle+0x3d8>
a3e02364:	e59f4158 	ldr	r4, [pc, #158]	; a3e024c4 <RxPacketHandle+0x2f0>
a3e02368:	e5943000 	ldr	r3, [r4]
a3e0236c:	e3530000 	cmp	r3, #0	; 0x0
a3e02370:	1a00008d 	bne	a3e025ac <RxPacketHandle+0x3d8>
a3e02374:	e2840004 	add	r0, r4, #4	; 0x4
a3e02378:	e287101c 	add	r1, r7, #28	; 0x1c
a3e0237c:	e1a0200a 	mov	r2, sl
a3e02380:	ebfff964 	bl	a3e00918 <MemCmp>
a3e02384:	e3500000 	cmp	r0, #0	; 0x0
a3e02388:	1a000087 	bne	a3e025ac <RxPacketHandle+0x3d8>
a3e0238c:	e1a0000d 	mov	r0, sp
a3e02390:	e5845000 	str	r5, [r4]
a3e02394:	ebfff925 	bl	a3e00830 <GetTime>
a3e02398:	e5840010 	str	r0, [r4, #16]
a3e0239c:	e2840008 	add	r0, r4, #8	; 0x8
a3e023a0:	e2871016 	add	r1, r7, #22	; 0x16
a3e023a4:	ea00003e 	b	a3e024a4 <RxPacketHandle+0x2d0>
a3e023a8:	e3510029 	cmp	r1, #41	; 0x29
a3e023ac:	da00007e 	ble	a3e025ac <RxPacketHandle+0x3d8>
a3e023b0:	e1d430b2 	ldrh	r3, [r4, #2]
a3e023b4:	e5d42002 	ldrb	r2, [r4, #2]
a3e023b8:	e1a03803 	mov	r3, r3, lsl #16
a3e023bc:	e1a03c43 	mov	r3, r3, asr #24
a3e023c0:	e1833402 	orr	r3, r3, r2, lsl #8
a3e023c4:	e283300e 	add	r3, r3, #14	; 0xe
a3e023c8:	e1510003 	cmp	r1, r3
a3e023cc:	ba000076 	blt	a3e025ac <RxPacketHandle+0x3d8>
a3e023d0:	e5d7300e 	ldrb	r3, [r7, #14]
a3e023d4:	e20330f0 	and	r3, r3, #240	; 0xf0
a3e023d8:	e3530040 	cmp	r3, #64	; 0x40
a3e023dc:	1a000072 	bne	a3e025ac <RxPacketHandle+0x3d8>
a3e023e0:	e59f30e0 	ldr	r3, [pc, #e0]	; a3e024c8 <RxPacketHandle+0x2f4>
a3e023e4:	e1d420f6 	ldrsh	r2, [r4, #6]
a3e023e8:	e0023003 	and	r3, r2, r3
a3e023ec:	e3530000 	cmp	r3, #0	; 0x0
a3e023f0:	1a00006d 	bne	a3e025ac <RxPacketHandle+0x3d8>
a3e023f4:	e1a00004 	mov	r0, r4
a3e023f8:	e3a0100a 	mov	r1, #10	; 0xa
a3e023fc:	eb00006c 	bl	a3e025b4 <IPChksumOK>
a3e02400:	e3500000 	cmp	r0, #0	; 0x0
a3e02404:	0a000068 	beq	a3e025ac <RxPacketHandle+0x3d8>
a3e02408:	e5d43009 	ldrb	r3, [r4, #9]
a3e0240c:	e3530011 	cmp	r3, #17	; 0x11
a3e02410:	1a000065 	bne	a3e025ac <RxPacketHandle+0x3d8>
a3e02414:	e59f30b0 	ldr	r3, [pc, #b0]	; a3e024cc <RxPacketHandle+0x2f8>
a3e02418:	e1d330f0 	ldrsh	r3, [r3]
a3e0241c:	e3530044 	cmp	r3, #68	; 0x44
a3e02420:	0a000002 	beq	a3e02430 <RxPacketHandle+0x25c>
a3e02424:	e3530045 	cmp	r3, #69	; 0x45
a3e02428:	0a00002b 	beq	a3e024dc <RxPacketHandle+0x308>
a3e0242c:	ea00005e 	b	a3e025ac <RxPacketHandle+0x3d8>
a3e02430:	e59f2098 	ldr	r2, [pc, #98]	; a3e024d0 <RxPacketHandle+0x2fc>
a3e02434:	e1d702b2 	ldrh	r0, [r7, #34]
a3e02438:	e1d230b0 	ldrh	r3, [r2]
a3e0243c:	e5d21000 	ldrb	r1, [r2]
a3e02440:	e1a03423 	mov	r3, r3, lsr #8
a3e02444:	e1833401 	orr	r3, r3, r1, lsl #8
a3e02448:	e1500003 	cmp	r0, r3
a3e0244c:	1a000056 	bne	a3e025ac <RxPacketHandle+0x3d8>
a3e02450:	e59f207c 	ldr	r2, [pc, #7c]	; a3e024d4 <RxPacketHandle+0x300>
a3e02454:	e1d500b2 	ldrh	r0, [r5, #2]
a3e02458:	e1d230b0 	ldrh	r3, [r2]
a3e0245c:	e5d21000 	ldrb	r1, [r2]
a3e02460:	e1a03423 	mov	r3, r3, lsr #8
a3e02464:	e1833401 	orr	r3, r3, r1, lsl #8
a3e02468:	e1500003 	cmp	r0, r3
a3e0246c:	1a00004e 	bne	a3e025ac <RxPacketHandle+0x3d8>
a3e02470:	e1d510b4 	ldrh	r1, [r5, #4]
a3e02474:	e287002a 	add	r0, r7, #42	; 0x2a
a3e02478:	e20130ff 	and	r3, r1, #255	; 0xff
a3e0247c:	e1a01421 	mov	r1, r1, lsr #8
a3e02480:	e1811403 	orr	r1, r1, r3, lsl #8
a3e02484:	e2411008 	sub	r1, r1, #8	; 0x8
a3e02488:	e1a01801 	mov	r1, r1, lsl #16
a3e0248c:	e1a01841 	mov	r1, r1, asr #16
a3e02490:	eb000209 	bl	a3e02cbc <BootpRx>
a3e02494:	e3500001 	cmp	r0, #1	; 0x1
a3e02498:	1a000043 	bne	a3e025ac <RxPacketHandle+0x3d8>
a3e0249c:	e2871006 	add	r1, r7, #6	; 0x6
a3e024a0:	e59f0030 	ldr	r0, [pc, #30]	; a3e024d8 <RxPacketHandle+0x304>
a3e024a4:	e3a02006 	mov	r2, #6	; 0x6
a3e024a8:	ebfff909 	bl	a3e008d4 <MemCpy>
a3e024ac:	ea00003e 	b	a3e025ac <RxPacketHandle+0x3d8>
a3e024b0:	00000806 	andeq	r0, r0, r6, lsl #16
a3e024b4:	a3e077ac 	mvnge	r7, #45088768	; 0x2b00000
a3e024b8:	a3e07790 	mvnge	r7, #37748736	; 0x2400000
a3e024bc:	00000608 	andeq	r0, r0, r8, lsl #12
a3e024c0:	a3e07af8 	mvnge	r7, #1015808	; 0xf8000
a3e024c4:	a3e077e0 	mvnge	r7, #58720256	; 0x3800000
a3e024c8:	0000ff1f 	andeq	pc, r0, pc, lsl pc
a3e024cc:	a3e077b0 	mvnge	r7, #46137344	; 0x2c00000
a3e024d0:	a3e077b4 	mvnge	r7, #47185920	; 0x2d00000
a3e024d4:	a3e077b6 	mvnge	r7, #47710208	; 0x2d80000
a3e024d8:	a3e0779c 	mvnge	r7, #40894464	; 0x2700000
a3e024dc:	e59f30bc 	ldr	r3, [pc, #bc]	; a3e025a0 <RxPacketHandle+0x3cc>
a3e024e0:	e1d702b2 	ldrh	r0, [r7, #34]
a3e024e4:	e1d320b0 	ldrh	r2, [r3]
a3e024e8:	e5d31000 	ldrb	r1, [r3]
a3e024ec:	e1a02422 	mov	r2, r2, lsr #8
a3e024f0:	e1822401 	orr	r2, r2, r1, lsl #8
a3e024f4:	e1500002 	cmp	r0, r2
a3e024f8:	e1a01003 	mov	r1, r3
a3e024fc:	0a000008 	beq	a3e02524 <RxPacketHandle+0x350>
a3e02500:	e59f309c 	ldr	r3, [pc, #9c]	; a3e025a4 <RxPacketHandle+0x3d0>
a3e02504:	e1d320b0 	ldrh	r2, [r3]
a3e02508:	e1b03802 	movs	r3, r2, lsl #16
a3e0250c:	0a000004 	beq	a3e02524 <RxPacketHandle+0x350>
a3e02510:	e20220ff 	and	r2, r2, #255	; 0xff
a3e02514:	e1a03c23 	mov	r3, r3, lsr #24
a3e02518:	e1833402 	orr	r3, r3, r2, lsl #8
a3e0251c:	e1500003 	cmp	r0, r3
a3e02520:	1a000021 	bne	a3e025ac <RxPacketHandle+0x3d8>
a3e02524:	e1d130b0 	ldrh	r3, [r1]
a3e02528:	e5d12000 	ldrb	r2, [r1]
a3e0252c:	e1d500b2 	ldrh	r0, [r5, #2]
a3e02530:	e1a03423 	mov	r3, r3, lsr #8
a3e02534:	e1833402 	orr	r3, r3, r2, lsl #8
a3e02538:	e1500003 	cmp	r0, r3
a3e0253c:	0a000006 	beq	a3e0255c <RxPacketHandle+0x388>
a3e02540:	e59f3060 	ldr	r3, [pc, #60]	; a3e025a8 <RxPacketHandle+0x3d4>
a3e02544:	e1d320b0 	ldrh	r2, [r3]
a3e02548:	e5d31000 	ldrb	r1, [r3]
a3e0254c:	e1a02422 	mov	r2, r2, lsr #8
a3e02550:	e1822401 	orr	r2, r2, r1, lsl #8
a3e02554:	e1500002 	cmp	r0, r2
a3e02558:	1a000013 	bne	a3e025ac <RxPacketHandle+0x3d8>
a3e0255c:	e59f1040 	ldr	r1, [pc, #40]	; a3e025a4 <RxPacketHandle+0x3d0>
a3e02560:	e1d130b0 	ldrh	r3, [r1]
a3e02564:	e3530000 	cmp	r3, #0	; 0x0
a3e02568:	1a000004 	bne	a3e02580 <RxPacketHandle+0x3ac>
a3e0256c:	e1d530b0 	ldrh	r3, [r5]
a3e02570:	e20320ff 	and	r2, r3, #255	; 0xff
a3e02574:	e1a03423 	mov	r3, r3, lsr #8
a3e02578:	e1833402 	orr	r3, r3, r2, lsl #8
a3e0257c:	e1c130b0 	strh	r3, [r1]
a3e02580:	e287002a 	add	r0, r7, #42	; 0x2a
a3e02584:	e1d510b4 	ldrh	r1, [r5, #4]
a3e02588:	e5d53004 	ldrb	r3, [r5, #4]
a3e0258c:	e1a01421 	mov	r1, r1, lsr #8
a3e02590:	e1811403 	orr	r1, r1, r3, lsl #8
a3e02594:	e2411008 	sub	r1, r1, #8	; 0x8
a3e02598:	eb00031f 	bl	a3e0321c <TftpRx>
a3e0259c:	ea000002 	b	a3e025ac <RxPacketHandle+0x3d8>
a3e025a0:	a3e077d4 	mvnge	r7, #55574528	; 0x3500000
a3e025a4:	a3e077d6 	mvnge	r7, #56098816	; 0x3580000
a3e025a8:	a3e077d8 	mvnge	r7, #56623104	; 0x3600000
a3e025ac:	e28dd008 	add	sp, sp, #8	; 0x8
a3e025b0:	e8bd87f0 	ldmia	sp!, {r4, r5, r6, r7, r8, r9, sl, pc}

a3e025b4 <IPChksumOK>:
a3e025b4:	e92d4000 	stmdb	sp!, {lr}
a3e025b8:	eb000007 	bl	a3e025dc <IPChksum>
a3e025bc:	e59f3014 	ldr	r3, [pc, #14]	; a3e025d8 <IPChksumOK+0x24>
a3e025c0:	e2800001 	add	r0, r0, #1	; 0x1
a3e025c4:	e0003003 	and	r3, r0, r3
a3e025c8:	e3530000 	cmp	r3, #0	; 0x0
a3e025cc:	13a00000 	movne	r0, #0	; 0x0
a3e025d0:	03a00001 	moveq	r0, #1	; 0x1
a3e025d4:	e8bd8000 	ldmia	sp!, {pc}
a3e025d8:	0000fffe 	streqd	pc, [r0], -lr

a3e025dc <IPChksum>:
a3e025dc:	e3a0c000 	mov	ip, #0	; 0x0
a3e025e0:	e1a03001 	mov	r3, r1
a3e025e4:	e2411001 	sub	r1, r1, #1	; 0x1
a3e025e8:	e153000c 	cmp	r3, ip
a3e025ec:	da000005 	ble	a3e02608 <IPChksum+0x2c>
a3e025f0:	e1a02001 	mov	r2, r1
a3e025f4:	e2411001 	sub	r1, r1, #1	; 0x1
a3e025f8:	e0d030b2 	ldrh	r3, [r0], #2
a3e025fc:	e3520000 	cmp	r2, #0	; 0x0
a3e02600:	e08cc003 	add	ip, ip, r3
a3e02604:	cafffff9 	bgt	a3e025f0 <IPChksum+0x14>
a3e02608:	e59f0014 	ldr	r0, [pc, #14]	; a3e02624 <IPChksum+0x48>
a3e0260c:	e00c3000 	and	r3, ip, r0
a3e02610:	e083c82c 	add	ip, r3, ip, lsr #16
a3e02614:	e00c2000 	and	r2, ip, r0
a3e02618:	e082c82c 	add	ip, r2, ip, lsr #16
a3e0261c:	e00c0000 	and	r0, ip, r0
a3e02620:	e1a0f00e 	mov	pc, lr
a3e02624:	0000ffff 	streqd	pc, [r0], -pc

a3e02628 <FindMacAddr>:
a3e02628:	e92d40f0 	stmdb	sp!, {r4, r5, r6, r7, lr}
a3e0262c:	e59f5088 	ldr	r5, [pc, #88]	; a3e026bc <FindMacAddr+0x94>
a3e02630:	e5953000 	ldr	r3, [r5]
a3e02634:	e1a06000 	mov	r6, r0
a3e02638:	e3530000 	cmp	r3, #0	; 0x0
a3e0263c:	e24dd008 	sub	sp, sp, #8	; 0x8
a3e02640:	0a00000e 	beq	a3e02680 <FindMacAddr+0x58>
a3e02644:	e28d4004 	add	r4, sp, #4	; 0x4
a3e02648:	e1a00004 	mov	r0, r4
a3e0264c:	ebfff877 	bl	a3e00830 <GetTime>
a3e02650:	e5953010 	ldr	r3, [r5, #16]
a3e02654:	e2833005 	add	r3, r3, #5	; 0x5
a3e02658:	e1500003 	cmp	r0, r3
a3e0265c:	8a000007 	bhi	a3e02680 <FindMacAddr+0x58>
a3e02660:	e5953004 	ldr	r3, [r5, #4]
a3e02664:	e1560003 	cmp	r6, r3
a3e02668:	1a000004 	bne	a3e02680 <FindMacAddr+0x58>
a3e0266c:	e1a00004 	mov	r0, r4
a3e02670:	ebfff86e 	bl	a3e00830 <GetTime>
a3e02674:	e2853008 	add	r3, r5, #8	; 0x8
a3e02678:	e5850010 	str	r0, [r5, #16]
a3e0267c:	ea000000 	b	a3e02684 <FindMacAddr+0x5c>
a3e02680:	e3a03000 	mov	r3, #0	; 0x0
a3e02684:	e3530000 	cmp	r3, #0	; 0x0
a3e02688:	0a000003 	beq	a3e0269c <FindMacAddr+0x74>
a3e0268c:	e1a00003 	mov	r0, r3
a3e02690:	ea000017 	b	a3e026f4 <FindMacAddr+0xcc>
a3e02694:	e2850008 	add	r0, r5, #8	; 0x8
a3e02698:	ea000015 	b	a3e026f4 <FindMacAddr+0xcc>
a3e0269c:	e1a0400d 	mov	r4, sp
a3e026a0:	e1a00004 	mov	r0, r4
a3e026a4:	e8850048 	stmia	r5, {r3, r6}
a3e026a8:	ebfff860 	bl	a3e00830 <GetTime>
a3e026ac:	e2807005 	add	r7, r0, #5	; 0x5
a3e026b0:	e1a00006 	mov	r0, r6
a3e026b4:	ebfffe92 	bl	a3e02104 <SendArpRequest>
a3e026b8:	ea000008 	b	a3e026e0 <FindMacAddr+0xb8>
a3e026bc:	a3e077e0 	mvnge	r7, #58720256	; 0x3800000
a3e026c0:	e59f0030 	ldr	r0, [pc, #30]	; a3e026f8 <FindMacAddr+0xd0>
a3e026c4:	ebfffe88 	bl	a3e020ec <RxPacket>
a3e026c8:	e5953000 	ldr	r3, [r5]
a3e026cc:	e3530000 	cmp	r3, #0	; 0x0
a3e026d0:	0a000002 	beq	a3e026e0 <FindMacAddr+0xb8>
a3e026d4:	e5953004 	ldr	r3, [r5, #4]
a3e026d8:	e1530006 	cmp	r3, r6
a3e026dc:	0affffec 	beq	a3e02694 <FindMacAddr+0x6c>
a3e026e0:	e1a00004 	mov	r0, r4
a3e026e4:	ebfff851 	bl	a3e00830 <GetTime>
a3e026e8:	e1500007 	cmp	r0, r7
a3e026ec:	3afffff3 	bcc	a3e026c0 <FindMacAddr+0x98>
a3e026f0:	e3a00000 	mov	r0, #0	; 0x0
a3e026f4:	ea000000 	b	a3e026fc <FindMacAddr+0xd4>
a3e026f8:	a3e07890 	mvnge	r7, #9437184	; 0x900000
a3e026fc:	e28dd008 	add	sp, sp, #8	; 0x8
a3e02700:	e8bd80f0 	ldmia	sp!, {r4, r5, r6, r7, pc}

a3e02704 <SetEtherHeader>:
a3e02704:	e92d4030 	stmdb	sp!, {r4, r5, lr}
a3e02708:	e1a05000 	mov	r5, r0
a3e0270c:	e1a04802 	mov	r4, r2, lsl #16
a3e02710:	e3a02006 	mov	r2, #6	; 0x6
a3e02714:	ebfff86e 	bl	a3e008d4 <MemCpy>
a3e02718:	e2850006 	add	r0, r5, #6	; 0x6
a3e0271c:	e59f101c 	ldr	r1, [pc, #1c]	; a3e02740 <SetEtherHeader+0x3c>
a3e02720:	e3a02006 	mov	r2, #6	; 0x6
a3e02724:	ebfff86a 	bl	a3e008d4 <MemCpy>
a3e02728:	e1a03824 	mov	r3, r4, lsr #16
a3e0272c:	e20330ff 	and	r3, r3, #255	; 0xff
a3e02730:	e1a04c24 	mov	r4, r4, lsr #24
a3e02734:	e1844403 	orr	r4, r4, r3, lsl #8
a3e02738:	e1c540bc 	strh	r4, [r5, #12]
a3e0273c:	e8bd8030 	ldmia	sp!, {r4, r5, pc}
a3e02740:	a3e07790 	mvnge	r7, #37748736	; 0x2400000

a3e02744 <SetIPHeader>:
a3e02744:	e92d4070 	stmdb	sp!, {r4, r5, r6, lr}
a3e02748:	e1a06000 	mov	r6, r0
a3e0274c:	e1a03803 	mov	r3, r3, lsl #16
a3e02750:	e1a0c823 	mov	ip, r3, lsr #16
a3e02754:	e3130801 	tst	r3, #65536	; 0x10000
a3e02758:	e24dd008 	sub	sp, sp, #8	; 0x8
a3e0275c:	e58d1004 	str	r1, [sp, #4]
a3e02760:	e58d2000 	str	r2, [sp]
a3e02764:	0a000002 	beq	a3e02774 <SetIPHeader+0x30>
a3e02768:	e08c2006 	add	r2, ip, r6
a3e0276c:	e3a03000 	mov	r3, #0	; 0x0
a3e02770:	e5c23014 	strb	r3, [r2, #20]
a3e02774:	e286000c 	add	r0, r6, #12	; 0xc
a3e02778:	e28d1004 	add	r1, sp, #4	; 0x4
a3e0277c:	e3a03045 	mov	r3, #69	; 0x45
a3e02780:	e3a05000 	mov	r5, #0	; 0x0
a3e02784:	e5c63000 	strb	r3, [r6]
a3e02788:	e28c3014 	add	r3, ip, #20	; 0x14
a3e0278c:	e20320ff 	and	r2, r3, #255	; 0xff
a3e02790:	e1a03443 	mov	r3, r3, asr #8
a3e02794:	e59f4074 	ldr	r4, [pc, #74]	; a3e02810 <SetIPHeader+0xcc>
a3e02798:	e1833402 	orr	r3, r3, r2, lsl #8
a3e0279c:	e5c65001 	strb	r5, [r6, #1]
a3e027a0:	e1c630b2 	strh	r3, [r6, #2]
a3e027a4:	e1d4e0b0 	ldrh	lr, [r4]
a3e027a8:	e3a02004 	mov	r2, #4	; 0x4
a3e027ac:	e28e3001 	add	r3, lr, #1	; 0x1
a3e027b0:	e283c001 	add	ip, r3, #1	; 0x1
a3e027b4:	e20ee0ff 	and	lr, lr, #255	; 0xff
a3e027b8:	e1a03803 	mov	r3, r3, lsl #16
a3e027bc:	e1a03c43 	mov	r3, r3, asr #24
a3e027c0:	e183340e 	orr	r3, r3, lr, lsl #8
a3e027c4:	e1c4c0b0 	strh	ip, [r4]
a3e027c8:	e1c630b4 	strh	r3, [r6, #4]
a3e027cc:	e3a03040 	mov	r3, #64	; 0x40
a3e027d0:	e3a0c011 	mov	ip, #17	; 0x11
a3e027d4:	e1c650b6 	strh	r5, [r6, #6]
a3e027d8:	e5c63008 	strb	r3, [r6, #8]
a3e027dc:	e5c6c009 	strb	ip, [r6, #9]
a3e027e0:	e1c650ba 	strh	r5, [r6, #10]
a3e027e4:	ebfff83a 	bl	a3e008d4 <MemCpy>
a3e027e8:	e2860010 	add	r0, r6, #16	; 0x10
a3e027ec:	e1a0100d 	mov	r1, sp
a3e027f0:	e3a02004 	mov	r2, #4	; 0x4
a3e027f4:	ebfff836 	bl	a3e008d4 <MemCpy>
a3e027f8:	e1a00006 	mov	r0, r6
a3e027fc:	e3a0100a 	mov	r1, #10	; 0xa
a3e02800:	ebffff75 	bl	a3e025dc <IPChksum>
a3e02804:	e1e00000 	mvn	r0, r0
a3e02808:	e1c600ba 	strh	r0, [r6, #10]
a3e0280c:	ea000000 	b	a3e02814 <SetIPHeader+0xd0>
a3e02810:	a3e07880 	mvnge	r7, #8388608	; 0x800000
a3e02814:	e28dd008 	add	sp, sp, #8	; 0x8
a3e02818:	e8bd8070 	ldmia	sp!, {r4, r5, r6, pc}

a3e0281c <SetUdpHeader>:
a3e0281c:	e1a01801 	mov	r1, r1, lsl #16
a3e02820:	e1a0c421 	mov	ip, r1, lsr #8
a3e02824:	e20cccff 	and	ip, ip, #65280	; 0xff00
a3e02828:	e18ccc21 	orr	ip, ip, r1, lsr #24
a3e0282c:	e1a02802 	mov	r2, r2, lsl #16
a3e02830:	e1a01422 	mov	r1, r2, lsr #8
a3e02834:	e2011cff 	and	r1, r1, #65280	; 0xff00
a3e02838:	e1811c22 	orr	r1, r1, r2, lsr #24
a3e0283c:	e1a03803 	mov	r3, r3, lsl #16
a3e02840:	e1a03823 	mov	r3, r3, lsr #16
a3e02844:	e2833008 	add	r3, r3, #8	; 0x8
a3e02848:	e20320ff 	and	r2, r3, #255	; 0xff
a3e0284c:	e1a03443 	mov	r3, r3, asr #8
a3e02850:	e1833402 	orr	r3, r3, r2, lsl #8
a3e02854:	e1c0c0b2 	strh	ip, [r0, #2]
a3e02858:	e1c010b0 	strh	r1, [r0]
a3e0285c:	e1c030b4 	strh	r3, [r0, #4]
a3e02860:	e3a03000 	mov	r3, #0	; 0x0
a3e02864:	e1c030b6 	strh	r3, [r0, #6]
a3e02868:	e1a0f00e 	mov	pc, lr

a3e0286c <PrintIPAddr>:
a3e0286c:	e2003cff 	and	r3, r0, #65280	; 0xff00
a3e02870:	e1a03403 	mov	r3, r3, lsl #8
a3e02874:	e1833c00 	orr	r3, r3, r0, lsl #24
a3e02878:	e20028ff 	and	r2, r0, #16711680	; 0xff0000
a3e0287c:	e1833422 	orr	r3, r3, r2, lsr #8
a3e02880:	e1830c20 	orr	r0, r3, r0, lsr #24
a3e02884:	e92d4000 	stmdb	sp!, {lr}
a3e02888:	e20020ff 	and	r2, r0, #255	; 0xff
a3e0288c:	e1a03420 	mov	r3, r0, lsr #8
a3e02890:	e1a01c20 	mov	r1, r0, lsr #24
a3e02894:	e20330ff 	and	r3, r3, #255	; 0xff
a3e02898:	e24dd004 	sub	sp, sp, #4	; 0x4
a3e0289c:	e58d2000 	str	r2, [sp]
a3e028a0:	e1a02820 	mov	r2, r0, lsr #16
a3e028a4:	e59f0008 	ldr	r0, [pc, #8]	; a3e028b4 <PrintIPAddr+0x48>
a3e028a8:	e20220ff 	and	r2, r2, #255	; 0xff
a3e028ac:	ebfffa8f 	bl	a3e012f0 <printf>
a3e028b0:	ea000000 	b	a3e028b8 <PrintIPAddr+0x4c>
a3e028b4:	a3e059cc 	mvnge	r5, #3342336	; 0x330000
a3e028b8:	e28dd004 	add	sp, sp, #4	; 0x4
a3e028bc:	e8bd8000 	ldmia	sp!, {pc}

a3e028c0 <PrintEthAddr>:
a3e028c0:	e92d4070 	stmdb	sp!, {r4, r5, r6, lr}
a3e028c4:	e1a05000 	mov	r5, r0
a3e028c8:	e3a04000 	mov	r4, #0	; 0x0
a3e028cc:	e59f6030 	ldr	r6, [pc, #30]	; a3e02904 <PrintEthAddr+0x44>
a3e028d0:	e3540000 	cmp	r4, #0	; 0x0
a3e028d4:	0a000003 	beq	a3e028e8 <PrintEthAddr+0x28>
a3e028d8:	e3140001 	tst	r4, #1	; 0x1
a3e028dc:	1a000001 	bne	a3e028e8 <PrintEthAddr+0x28>
a3e028e0:	e59f0020 	ldr	r0, [pc, #20]	; a3e02908 <PrintEthAddr+0x48>
a3e028e4:	ebfffa81 	bl	a3e012f0 <printf>
a3e028e8:	e1a00006 	mov	r0, r6
a3e028ec:	e7d51004 	ldrb	r1, [r5, r4]
a3e028f0:	e2844001 	add	r4, r4, #1	; 0x1
a3e028f4:	ebfffa7d 	bl	a3e012f0 <printf>
a3e028f8:	e3540005 	cmp	r4, #5	; 0x5
a3e028fc:	dafffff3 	ble	a3e028d0 <PrintEthAddr+0x10>
a3e02900:	e8bd8070 	ldmia	sp!, {r4, r5, r6, pc}
a3e02904:	a3e059dc 	mvnge	r5, #3604480	; 0x370000
a3e02908:	a3e059d8 	mvnge	r5, #3538944	; 0x360000

a3e0290c <CheckArpCache>:
a3e0290c:	e92d4070 	stmdb	sp!, {r4, r5, r6, lr}
a3e02910:	e59f404c 	ldr	r4, [pc, #4c]	; a3e02964 <CheckArpCache+0x58>
a3e02914:	e5943000 	ldr	r3, [r4]
a3e02918:	e1a06000 	mov	r6, r0
a3e0291c:	e3530000 	cmp	r3, #0	; 0x0
a3e02920:	e24dd004 	sub	sp, sp, #4	; 0x4
a3e02924:	0a00000f 	beq	a3e02968 <CheckArpCache+0x5c>
a3e02928:	e1a0500d 	mov	r5, sp
a3e0292c:	e1a00005 	mov	r0, r5
a3e02930:	ebfff7be 	bl	a3e00830 <GetTime>
a3e02934:	e5943010 	ldr	r3, [r4, #16]
a3e02938:	e2833005 	add	r3, r3, #5	; 0x5
a3e0293c:	e1500003 	cmp	r0, r3
a3e02940:	8a000008 	bhi	a3e02968 <CheckArpCache+0x5c>
a3e02944:	e5943004 	ldr	r3, [r4, #4]
a3e02948:	e1560003 	cmp	r6, r3
a3e0294c:	1a000005 	bne	a3e02968 <CheckArpCache+0x5c>
a3e02950:	e1a00005 	mov	r0, r5
a3e02954:	ebfff7b5 	bl	a3e00830 <GetTime>
a3e02958:	e5840010 	str	r0, [r4, #16]
a3e0295c:	e2840008 	add	r0, r4, #8	; 0x8
a3e02960:	ea000001 	b	a3e0296c <CheckArpCache+0x60>
a3e02964:	a3e077e0 	mvnge	r7, #58720256	; 0x3800000
a3e02968:	e3a00000 	mov	r0, #0	; 0x0
a3e0296c:	e28dd004 	add	sp, sp, #4	; 0x4
a3e02970:	e8bd8070 	ldmia	sp!, {r4, r5, r6, pc}

a3e02974 <SetBootpHeader>:
a3e02974:	e92d41f0 	stmdb	sp!, {r4, r5, r6, r7, r8, lr}
a3e02978:	e1a06000 	mov	r6, r0
a3e0297c:	e3a03001 	mov	r3, #1	; 0x1
a3e02980:	e3a08006 	mov	r8, #6	; 0x6
a3e02984:	e3a05000 	mov	r5, #0	; 0x0
a3e02988:	e24dd004 	sub	sp, sp, #4	; 0x4
a3e0298c:	e1a0700d 	mov	r7, sp
a3e02990:	e1a00007 	mov	r0, r7
a3e02994:	e5c63000 	strb	r3, [r6]
a3e02998:	e5c63001 	strb	r3, [r6, #1]
a3e0299c:	e5c68002 	strb	r8, [r6, #2]
a3e029a0:	e5c65003 	strb	r5, [r6, #3]
a3e029a4:	ebfff7a1 	bl	a3e00830 <GetTime>
a3e029a8:	e1a04000 	mov	r4, r0
a3e029ac:	e1a00007 	mov	r0, r7
a3e029b0:	ebfff79e 	bl	a3e00830 <GetTime>
a3e029b4:	e1a03420 	mov	r3, r0, lsr #8
a3e029b8:	e286000c 	add	r0, r6, #12	; 0xc
a3e029bc:	e1a01005 	mov	r1, r5
a3e029c0:	e3a02004 	mov	r2, #4	; 0x4
a3e029c4:	e20440ff 	and	r4, r4, #255	; 0xff
a3e029c8:	e1833404 	orr	r3, r3, r4, lsl #8
a3e029cc:	e1c630b8 	strh	r3, [r6, #8]
a3e029d0:	ebfff7c7 	bl	a3e008f4 <MemSet>
a3e029d4:	e2860010 	add	r0, r6, #16	; 0x10
a3e029d8:	e1a01005 	mov	r1, r5
a3e029dc:	e3a02004 	mov	r2, #4	; 0x4
a3e029e0:	ebfff7c3 	bl	a3e008f4 <MemSet>
a3e029e4:	e2860014 	add	r0, r6, #20	; 0x14
a3e029e8:	e1a01005 	mov	r1, r5
a3e029ec:	e3a02004 	mov	r2, #4	; 0x4
a3e029f0:	ebfff7bf 	bl	a3e008f4 <MemSet>
a3e029f4:	e2860018 	add	r0, r6, #24	; 0x18
a3e029f8:	e1a01005 	mov	r1, r5
a3e029fc:	e3a02004 	mov	r2, #4	; 0x4
a3e02a00:	ebfff7bb 	bl	a3e008f4 <MemSet>
a3e02a04:	e286001c 	add	r0, r6, #28	; 0x1c
a3e02a08:	e59f5058 	ldr	r5, [pc, #58]	; a3e02a68 <SetBootpHeader+0xf4>
a3e02a0c:	e1a02008 	mov	r2, r8
a3e02a10:	e1a01005 	mov	r1, r5
a3e02a14:	ebfff7ae 	bl	a3e008d4 <MemCpy>
a3e02a18:	e1a00007 	mov	r0, r7
a3e02a1c:	e5d53003 	ldrb	r3, [r5, #3]
a3e02a20:	e5d52002 	ldrb	r2, [r5, #2]
a3e02a24:	e5d51004 	ldrb	r1, [r5, #4]
a3e02a28:	e59f403c 	ldr	r4, [pc, #3c]	; a3e02a6c <SetBootpHeader+0xf8>
a3e02a2c:	e1a03803 	mov	r3, r3, lsl #16
a3e02a30:	e1833c02 	orr	r3, r3, r2, lsl #24
a3e02a34:	e5d52005 	ldrb	r2, [r5, #5]
a3e02a38:	e1833401 	orr	r3, r3, r1, lsl #8
a3e02a3c:	e1833002 	orr	r3, r3, r2
a3e02a40:	e5843000 	str	r3, [r4]
a3e02a44:	ebfff779 	bl	a3e00830 <GetTime>
a3e02a48:	e1a01004 	mov	r1, r4
a3e02a4c:	e5943000 	ldr	r3, [r4]
a3e02a50:	e3a02004 	mov	r2, #4	; 0x4
a3e02a54:	e0833000 	add	r3, r3, r0
a3e02a58:	e0860002 	add	r0, r6, r2
a3e02a5c:	e5843000 	str	r3, [r4]
a3e02a60:	ebfff79b 	bl	a3e008d4 <MemCpy>
a3e02a64:	ea000001 	b	a3e02a70 <SetBootpHeader+0xfc>
a3e02a68:	a3e07790 	mvnge	r7, #37748736	; 0x2400000
a3e02a6c:	a3e07af4 	mvnge	r7, #999424	; 0xf4000
a3e02a70:	e28dd004 	add	sp, sp, #4	; 0x4
a3e02a74:	e8bd81f0 	ldmia	sp!, {r4, r5, r6, r7, r8, pc}

a3e02a78 <BootpTx>:
a3e02a78:	e92d47f0 	stmdb	sp!, {r4, r5, r6, r7, r8, r9, sl, lr}
a3e02a7c:	e3a01000 	mov	r1, #0	; 0x0
a3e02a80:	e3a02e26 	mov	r2, #608	; 0x260
a3e02a84:	e3a03002 	mov	r3, #2	; 0x2
a3e02a88:	e59f6140 	ldr	r6, [pc, #140]	; a3e02bd0 <BootpTx+0x158>
a3e02a8c:	e59f7140 	ldr	r7, [pc, #140]	; a3e02bd4 <BootpTx+0x15c>
a3e02a90:	e59f5140 	ldr	r5, [pc, #140]	; a3e02bd8 <BootpTx+0x160>
a3e02a94:	e1a00007 	mov	r0, r7
a3e02a98:	e24dd004 	sub	sp, sp, #4	; 0x4
a3e02a9c:	e1c630b0 	strh	r3, [r6]
a3e02aa0:	e3a03044 	mov	r3, #68	; 0x44
a3e02aa4:	e1c530b0 	strh	r3, [r5]
a3e02aa8:	ebfff791 	bl	a3e008f4 <MemSet>
a3e02aac:	e287002a 	add	r0, r7, #42	; 0x2a
a3e02ab0:	ebffffaf 	bl	a3e02974 <SetBootpHeader>
a3e02ab4:	e2870022 	add	r0, r7, #34	; 0x22
a3e02ab8:	e59f311c 	ldr	r3, [pc, #11c]	; a3e02bdc <BootpTx+0x164>
a3e02abc:	e59fc11c 	ldr	ip, [pc, #11c]	; a3e02be0 <BootpTx+0x168>
a3e02ac0:	e1d310b0 	ldrh	r1, [r3]
a3e02ac4:	e1dc20b0 	ldrh	r2, [ip]
a3e02ac8:	e3a03f4b 	mov	r3, #300	; 0x12c
a3e02acc:	ebffff52 	bl	a3e0281c <SetUdpHeader>
a3e02ad0:	e287000e 	add	r0, r7, #14	; 0xe
a3e02ad4:	e59f3108 	ldr	r3, [pc, #108]	; a3e02be4 <BootpTx+0x16c>
a3e02ad8:	e59fc108 	ldr	ip, [pc, #108]	; a3e02be8 <BootpTx+0x170>
a3e02adc:	e5931000 	ldr	r1, [r3]
a3e02ae0:	e59c2000 	ldr	r2, [ip]
a3e02ae4:	e3a03f4d 	mov	r3, #308	; 0x134
a3e02ae8:	ebffff15 	bl	a3e02744 <SetIPHeader>
a3e02aec:	e1a00007 	mov	r0, r7
a3e02af0:	e59f10f4 	ldr	r1, [pc, #f4]	; a3e02bec <BootpTx+0x174>
a3e02af4:	e3a02b02 	mov	r2, #2048	; 0x800
a3e02af8:	ebffff01 	bl	a3e02704 <SetEtherHeader>
a3e02afc:	e59f00ec 	ldr	r0, [pc, #ec]	; a3e02bf0 <BootpTx+0x178>
a3e02b00:	e59f40ec 	ldr	r4, [pc, #ec]	; a3e02bf4 <BootpTx+0x17c>
a3e02b04:	ebfff9f9 	bl	a3e012f0 <printf>
a3e02b08:	e1a00004 	mov	r0, r4
a3e02b0c:	ebffff6b 	bl	a3e028c0 <PrintEthAddr>
a3e02b10:	e59f00e0 	ldr	r0, [pc, #e0]	; a3e02bf8 <BootpTx+0x180>
a3e02b14:	ebfff9f5 	bl	a3e012f0 <printf>
a3e02b18:	e59f00dc 	ldr	r0, [pc, #dc]	; a3e02bfc <BootpTx+0x184>
a3e02b1c:	e3a08000 	mov	r8, #0	; 0x0
a3e02b20:	ebfff9f2 	bl	a3e012f0 <printf>
a3e02b24:	e1a09005 	mov	r9, r5
a3e02b28:	e59fa0d0 	ldr	sl, [pc, #d0]	; a3e02c00 <BootpTx+0x188>
a3e02b2c:	ea000013 	b	a3e02b80 <BootpTx+0x108>
a3e02b30:	e1a0400d 	mov	r4, sp
a3e02b34:	e1a00004 	mov	r0, r4
a3e02b38:	ebfff73c 	bl	a3e00830 <GetTime>
a3e02b3c:	e2805001 	add	r5, r0, #1	; 0x1
a3e02b40:	e1a00004 	mov	r0, r4
a3e02b44:	ebfff739 	bl	a3e00830 <GetTime>
a3e02b48:	e1500005 	cmp	r0, r5
a3e02b4c:	2a000007 	bcs	a3e02b70 <BootpTx+0xf8>
a3e02b50:	e1d630f0 	ldrsh	r3, [r6]
a3e02b54:	e3530002 	cmp	r3, #2	; 0x2
a3e02b58:	1a000004 	bne	a3e02b70 <BootpTx+0xf8>
a3e02b5c:	e1a00007 	mov	r0, r7
a3e02b60:	ebfffd61 	bl	a3e020ec <RxPacket>
a3e02b64:	e1d630f0 	ldrsh	r3, [r6]
a3e02b68:	e3530001 	cmp	r3, #1	; 0x1
a3e02b6c:	1afffff3 	bne	a3e02b40 <BootpTx+0xc8>
a3e02b70:	e1d630f0 	ldrsh	r3, [r6]
a3e02b74:	e3530001 	cmp	r3, #1	; 0x1
a3e02b78:	0a000009 	beq	a3e02ba4 <BootpTx+0x12c>
a3e02b7c:	e2888001 	add	r8, r8, #1	; 0x1
a3e02b80:	e3580013 	cmp	r8, #19	; 0x13
a3e02b84:	ca000006 	bgt	a3e02ba4 <BootpTx+0x12c>
a3e02b88:	e59f0074 	ldr	r0, [pc, #74]	; a3e02c04 <BootpTx+0x18c>
a3e02b8c:	ebfff9d7 	bl	a3e012f0 <printf>
a3e02b90:	e59f1070 	ldr	r1, [pc, #70]	; a3e02c08 <BootpTx+0x190>
a3e02b94:	e1a00007 	mov	r0, r7
a3e02b98:	ebfffd50 	bl	a3e020e0 <TxPacket>
a3e02b9c:	e3500000 	cmp	r0, #0	; 0x0
a3e02ba0:	1affffe2 	bne	a3e02b30 <BootpTx+0xb8>
a3e02ba4:	e1a0000a 	mov	r0, sl
a3e02ba8:	ebfff9d0 	bl	a3e012f0 <printf>
a3e02bac:	e1d660f0 	ldrsh	r6, [r6]
a3e02bb0:	e3a04000 	mov	r4, #0	; 0x0
a3e02bb4:	e1c940b0 	strh	r4, [r9]
a3e02bb8:	e3560001 	cmp	r6, #1	; 0x1
a3e02bbc:	0a000013 	beq	a3e02c10 <BootpTx+0x198>
a3e02bc0:	e59f0044 	ldr	r0, [pc, #44]	; a3e02c0c <BootpTx+0x194>
a3e02bc4:	ebfff9c9 	bl	a3e012f0 <printf>
a3e02bc8:	e1a00004 	mov	r0, r4
a3e02bcc:	ea00002e 	b	a3e02c8c <BootpTx+0x214>
a3e02bd0:	a3e07af0 	mvnge	r7, #983040	; 0xf0000
a3e02bd4:	a3e07890 	mvnge	r7, #9437184	; 0x900000
a3e02bd8:	a3e077b0 	mvnge	r7, #46137344	; 0x2c00000
a3e02bdc:	a3e077b4 	mvnge	r7, #47185920	; 0x2d00000
a3e02be0:	a3e077b6 	mvnge	r7, #47710208	; 0x2d80000
a3e02be4:	a3e077c4 	mvnge	r7, #51380224	; 0x3100000
a3e02be8:	a3e077c0 	mvnge	r7, #50331648	; 0x3000000
a3e02bec:	a3e077b8 	mvnge	r7, #48234496	; 0x2e00000
a3e02bf0:	a3e059e4 	mvnge	r5, #3735552	; 0x390000
a3e02bf4:	a3e07790 	mvnge	r7, #37748736	; 0x2400000
a3e02bf8:	a3e05a00 	mvnge	r5, #0	; 0x0
a3e02bfc:	a3e05a04 	mvnge	r5, #16384	; 0x4000
a3e02c00:	a3e05a24 	mvnge	r5, #147456	; 0x24000
a3e02c04:	a3e05a20 	mvnge	r5, #131072	; 0x20000
a3e02c08:	00000156 	andeq	r0, r0, r6, asr r1
a3e02c0c:	a3e05ac0 	mvnge	r5, #786432	; 0xc0000
a3e02c10:	e59f0078 	ldr	r0, [pc, #78]	; a3e02c90 <BootpTx+0x218>
a3e02c14:	ebfff9b5 	bl	a3e012f0 <printf>
a3e02c18:	e59f0074 	ldr	r0, [pc, #74]	; a3e02c94 <BootpTx+0x21c>
a3e02c1c:	ebfff9b3 	bl	a3e012f0 <printf>
a3e02c20:	e59f0070 	ldr	r0, [pc, #70]	; a3e02c98 <BootpTx+0x220>
a3e02c24:	ebffff25 	bl	a3e028c0 <PrintEthAddr>
a3e02c28:	e1a0000a 	mov	r0, sl
a3e02c2c:	ebfff9af 	bl	a3e012f0 <printf>
a3e02c30:	e59f0064 	ldr	r0, [pc, #64]	; a3e02c9c <BootpTx+0x224>
a3e02c34:	ebfff9ad 	bl	a3e012f0 <printf>
a3e02c38:	e59f3060 	ldr	r3, [pc, #60]	; a3e02ca0 <BootpTx+0x228>
a3e02c3c:	e5930000 	ldr	r0, [r3]
a3e02c40:	ebffff09 	bl	a3e0286c <PrintIPAddr>
a3e02c44:	e1a0000a 	mov	r0, sl
a3e02c48:	ebfff9a8 	bl	a3e012f0 <printf>
a3e02c4c:	e59f0050 	ldr	r0, [pc, #50]	; a3e02ca4 <BootpTx+0x22c>
a3e02c50:	ebfff9a6 	bl	a3e012f0 <printf>
a3e02c54:	e59f004c 	ldr	r0, [pc, #4c]	; a3e02ca8 <BootpTx+0x230>
a3e02c58:	ebffff18 	bl	a3e028c0 <PrintEthAddr>
a3e02c5c:	e1a0000a 	mov	r0, sl
a3e02c60:	ebfff9a2 	bl	a3e012f0 <printf>
a3e02c64:	e59f0040 	ldr	r0, [pc, #40]	; a3e02cac <BootpTx+0x234>
a3e02c68:	ebfff9a0 	bl	a3e012f0 <printf>
a3e02c6c:	e59f303c 	ldr	r3, [pc, #3c]	; a3e02cb0 <BootpTx+0x238>
a3e02c70:	e5930000 	ldr	r0, [r3]
a3e02c74:	ebfffefc 	bl	a3e0286c <PrintIPAddr>
a3e02c78:	e1a0000a 	mov	r0, sl
a3e02c7c:	ebfff99b 	bl	a3e012f0 <printf>
a3e02c80:	e1a0000a 	mov	r0, sl
a3e02c84:	ebfff999 	bl	a3e012f0 <printf>
a3e02c88:	e1a00006 	mov	r0, r6
a3e02c8c:	ea000008 	b	a3e02cb4 <BootpTx+0x23c>
a3e02c90:	a3e05a28 	mvnge	r5, #163840	; 0x28000
a3e02c94:	a3e05a40 	mvnge	r5, #262144	; 0x40000
a3e02c98:	a3e0779c 	mvnge	r7, #40894464	; 0x2700000
a3e02c9c:	a3e05a60 	mvnge	r5, #393216	; 0x60000
a3e02ca0:	a3e077a8 	mvnge	r7, #44040192	; 0x2a00000
a3e02ca4:	a3e05a80 	mvnge	r5, #524288	; 0x80000
a3e02ca8:	a3e07790 	mvnge	r7, #37748736	; 0x2400000
a3e02cac:	a3e05aa0 	mvnge	r5, #655360	; 0xa0000
a3e02cb0:	a3e077ac 	mvnge	r7, #45088768	; 0x2b00000
a3e02cb4:	e28dd004 	add	sp, sp, #4	; 0x4
a3e02cb8:	e8bd87f0 	ldmia	sp!, {r4, r5, r6, r7, r8, r9, sl, pc}

a3e02cbc <BootpRx>:
a3e02cbc:	e1a01801 	mov	r1, r1, lsl #16
a3e02cc0:	e351074b 	cmp	r1, #19660800	; 0x12c0000
a3e02cc4:	e92d40f0 	stmdb	sp!, {r4, r5, r6, r7, lr}
a3e02cc8:	e1a04000 	mov	r4, r0
a3e02ccc:	1a00000e 	bne	a3e02d0c <BootpRx+0x50>
a3e02cd0:	e5d43000 	ldrb	r3, [r4]
a3e02cd4:	e3530002 	cmp	r3, #2	; 0x2
a3e02cd8:	1a00000b 	bne	a3e02d0c <BootpRx+0x50>
a3e02cdc:	e5d45001 	ldrb	r5, [r4, #1]
a3e02ce0:	e3550001 	cmp	r5, #1	; 0x1
a3e02ce4:	1a000008 	bne	a3e02d0c <BootpRx+0x50>
a3e02ce8:	e5d46002 	ldrb	r6, [r4, #2]
a3e02cec:	e3560006 	cmp	r6, #6	; 0x6
a3e02cf0:	1a000005 	bne	a3e02d0c <BootpRx+0x50>
a3e02cf4:	e2840004 	add	r0, r4, #4	; 0x4
a3e02cf8:	e59f1064 	ldr	r1, [pc, #64]	; a3e02d64 <BootpRx+0xa8>
a3e02cfc:	e3a02004 	mov	r2, #4	; 0x4
a3e02d00:	ebfff704 	bl	a3e00918 <MemCmp>
a3e02d04:	e2507000 	subs	r7, r0, #0	; 0x0
a3e02d08:	0a000001 	beq	a3e02d14 <BootpRx+0x58>
a3e02d0c:	e3a00000 	mov	r0, #0	; 0x0
a3e02d10:	e8bd80f0 	ldmia	sp!, {r4, r5, r6, r7, pc}
a3e02d14:	e284001c 	add	r0, r4, #28	; 0x1c
a3e02d18:	e59f1048 	ldr	r1, [pc, #48]	; a3e02d68 <BootpRx+0xac>
a3e02d1c:	e1a02006 	mov	r2, r6
a3e02d20:	ebfff6fc 	bl	a3e00918 <MemCmp>
a3e02d24:	e3500000 	cmp	r0, #0	; 0x0
a3e02d28:	1a00000b 	bne	a3e02d5c <BootpRx+0xa0>
a3e02d2c:	e2841010 	add	r1, r4, #16	; 0x10
a3e02d30:	e59f0034 	ldr	r0, [pc, #34]	; a3e02d6c <BootpRx+0xb0>
a3e02d34:	e3a02004 	mov	r2, #4	; 0x4
a3e02d38:	ebfff6e5 	bl	a3e008d4 <MemCpy>
a3e02d3c:	e2841014 	add	r1, r4, #20	; 0x14
a3e02d40:	e59f0028 	ldr	r0, [pc, #28]	; a3e02d70 <BootpRx+0xb4>
a3e02d44:	e3a02004 	mov	r2, #4	; 0x4
a3e02d48:	ebfff6e1 	bl	a3e008d4 <MemCpy>
a3e02d4c:	e59f3020 	ldr	r3, [pc, #20]	; a3e02d74 <BootpRx+0xb8>
a3e02d50:	e1a00005 	mov	r0, r5
a3e02d54:	e1c350b0 	strh	r5, [r3]
a3e02d58:	e8bd80f0 	ldmia	sp!, {r4, r5, r6, r7, pc}
a3e02d5c:	e1a00007 	mov	r0, r7
a3e02d60:	e8bd80f0 	ldmia	sp!, {r4, r5, r6, r7, pc}
a3e02d64:	a3e07af4 	mvnge	r7, #999424	; 0xf4000
a3e02d68:	a3e07790 	mvnge	r7, #37748736	; 0x2400000
a3e02d6c:	a3e077ac 	mvnge	r7, #45088768	; 0x2b00000
a3e02d70:	a3e077a8 	mvnge	r7, #44040192	; 0x2a00000
a3e02d74:	a3e07af0 	mvnge	r7, #983040	; 0xf0000

a3e02d78 <DoBootp>:
a3e02d78:	e92d4010 	stmdb	sp!, {r4, lr}
a3e02d7c:	e1a04000 	mov	r4, r0
a3e02d80:	e3540001 	cmp	r4, #1	; 0x1
a3e02d84:	1a000002 	bne	a3e02d94 <DoBootp+0x1c>
a3e02d88:	ebffff3a 	bl	a3e02a78 <BootpTx>
a3e02d8c:	e1a00004 	mov	r0, r4
a3e02d90:	e8bd8010 	ldmia	sp!, {r4, pc}
a3e02d94:	e3a00000 	mov	r0, #0	; 0x0
a3e02d98:	e8bd8010 	ldmia	sp!, {r4, pc}

a3e02d9c <DoTftp>:
a3e02d9c:	e3500003 	cmp	r0, #3	; 0x3
a3e02da0:	e92d4030 	stmdb	sp!, {r4, r5, lr}
a3e02da4:	e1a05001 	mov	r5, r1
a3e02da8:	1a00002c 	bne	a3e02e60 <DoTftp+0xc4>
a3e02dac:	e5950008 	ldr	r0, [r5, #8]
a3e02db0:	e59f10c4 	ldr	r1, [pc, #c4]	; a3e02e7c <DoTftp+0xe0>
a3e02db4:	ebfff75a 	bl	a3e00b24 <StrCmp>
a3e02db8:	e3500000 	cmp	r0, #0	; 0x0
a3e02dbc:	1a000002 	bne	a3e02dcc <DoTftp+0x30>
a3e02dc0:	e59f20b8 	ldr	r2, [pc, #b8]	; a3e02e80 <DoTftp+0xe4>
a3e02dc4:	e59f30b8 	ldr	r3, [pc, #b8]	; a3e02e84 <DoTftp+0xe8>
a3e02dc8:	ea000016 	b	a3e02e28 <DoTftp+0x8c>
a3e02dcc:	e5950008 	ldr	r0, [r5, #8]
a3e02dd0:	e59f10b0 	ldr	r1, [pc, #b0]	; a3e02e88 <DoTftp+0xec>
a3e02dd4:	ebfff752 	bl	a3e00b24 <StrCmp>
a3e02dd8:	e3500000 	cmp	r0, #0	; 0x0
a3e02ddc:	1a000002 	bne	a3e02dec <DoTftp+0x50>
a3e02de0:	e59f2098 	ldr	r2, [pc, #98]	; a3e02e80 <DoTftp+0xe4>
a3e02de4:	e59f30a0 	ldr	r3, [pc, #a0]	; a3e02e8c <DoTftp+0xf0>
a3e02de8:	ea00000e 	b	a3e02e28 <DoTftp+0x8c>
a3e02dec:	e5950008 	ldr	r0, [r5, #8]
a3e02df0:	e59f1098 	ldr	r1, [pc, #98]	; a3e02e90 <DoTftp+0xf4>
a3e02df4:	ebfff74a 	bl	a3e00b24 <StrCmp>
a3e02df8:	e3500000 	cmp	r0, #0	; 0x0
a3e02dfc:	1a000002 	bne	a3e02e0c <DoTftp+0x70>
a3e02e00:	e59f2078 	ldr	r2, [pc, #78]	; a3e02e80 <DoTftp+0xe4>
a3e02e04:	e59f3088 	ldr	r3, [pc, #88]	; a3e02e94 <DoTftp+0xf8>
a3e02e08:	ea000006 	b	a3e02e28 <DoTftp+0x8c>
a3e02e0c:	e5950008 	ldr	r0, [r5, #8]
a3e02e10:	e59f1080 	ldr	r1, [pc, #80]	; a3e02e98 <DoTftp+0xfc>
a3e02e14:	ebfff742 	bl	a3e00b24 <StrCmp>
a3e02e18:	e3500000 	cmp	r0, #0	; 0x0
a3e02e1c:	1a00000f 	bne	a3e02e60 <DoTftp+0xc4>
a3e02e20:	e59f2058 	ldr	r2, [pc, #58]	; a3e02e80 <DoTftp+0xe4>
a3e02e24:	e59f3070 	ldr	r3, [pc, #70]	; a3e02e9c <DoTftp+0x100>
a3e02e28:	e5823000 	str	r3, [r2]
a3e02e2c:	e59f306c 	ldr	r3, [pc, #6c]	; a3e02ea0 <DoTftp+0x104>
a3e02e30:	e5934000 	ldr	r4, [r3]
a3e02e34:	e3540000 	cmp	r4, #0	; 0x0
a3e02e38:	1a00000a 	bne	a3e02e68 <DoTftp+0xcc>
a3e02e3c:	e59f0060 	ldr	r0, [pc, #60]	; a3e02ea4 <DoTftp+0x108>
a3e02e40:	ebfff92a 	bl	a3e012f0 <printf>
a3e02e44:	e3a00001 	mov	r0, #1	; 0x1
a3e02e48:	e1a01004 	mov	r1, r4
a3e02e4c:	ebffffc9 	bl	a3e02d78 <DoBootp>
a3e02e50:	e2504000 	subs	r4, r0, #0	; 0x0
a3e02e54:	1a000003 	bne	a3e02e68 <DoTftp+0xcc>
a3e02e58:	e59f0048 	ldr	r0, [pc, #48]	; a3e02ea8 <DoTftp+0x10c>
a3e02e5c:	ebfff923 	bl	a3e012f0 <printf>
a3e02e60:	e3a00000 	mov	r0, #0	; 0x0
a3e02e64:	e8bd8030 	ldmia	sp!, {r4, r5, pc}
a3e02e68:	e5950004 	ldr	r0, [r5, #4]
a3e02e6c:	eb00000e 	bl	a3e02eac <TftpStart>
a3e02e70:	e2500000 	subs	r0, r0, #0	; 0x0
a3e02e74:	13a00001 	movne	r0, #1	; 0x1
a3e02e78:	e8bd8030 	ldmia	sp!, {r4, r5, pc}
a3e02e7c:	a3e05ae0 	mvnge	r5, #917504	; 0xe0000
a3e02e80:	a3e077d0 	mvnge	r7, #54525952	; 0x3400000
a3e02e84:	a00c0000 	andge	r0, ip, r0
a3e02e88:	a3e05ae8 	mvnge	r5, #950272	; 0xe8000
a3e02e8c:	a0600000 	rsbge	r0, r0, r0
a3e02e90:	a3e05af0 	mvnge	r5, #983040	; 0xf0000
a3e02e94:	a3d00000 	bicges	r0, r0, #0	; 0x0
a3e02e98:	a3e05af8 	mvnge	r5, #1015808	; 0xf8000
a3e02e9c:	a1600000 	cmnge	r0, r0
a3e02ea0:	a3e077ac 	mvnge	r7, #45088768	; 0x2b00000
a3e02ea4:	a3e05afc 	mvnge	r5, #1032192	; 0xfc000
a3e02ea8:	a3e05b30 	mvnge	r5, #49152	; 0xc000

a3e02eac <TftpStart>:
a3e02eac:	e92d47f0 	stmdb	sp!, {r4, r5, r6, r7, r8, r9, sl, lr}
a3e02eb0:	e2506000 	subs	r6, r0, #0	; 0x0
a3e02eb4:	e59f8020 	ldr	r8, [pc, #20]	; a3e02edc <TftpStart+0x30>
a3e02eb8:	e24dd004 	sub	sp, sp, #4	; 0x4
a3e02ebc:	0a000002 	beq	a3e02ecc <TftpStart+0x20>
a3e02ec0:	e5d63000 	ldrb	r3, [r6]
a3e02ec4:	e3530000 	cmp	r3, #0	; 0x0
a3e02ec8:	1a000005 	bne	a3e02ee4 <TftpStart+0x38>
a3e02ecc:	e59f000c 	ldr	r0, [pc, #c]	; a3e02ee0 <TftpStart+0x34>
a3e02ed0:	ebfff906 	bl	a3e012f0 <printf>
a3e02ed4:	e3a00000 	mov	r0, #0	; 0x0
a3e02ed8:	ea000050 	b	a3e03020 <TftpStart+0x174>
a3e02edc:	a3e07890 	mvnge	r7, #9437184	; 0x900000
a3e02ee0:	a3e05b4c 	mvnge	r5, #77824	; 0x13000
a3e02ee4:	e59f0138 	ldr	r0, [pc, #138]	; a3e03024 <TftpStart+0x178>
a3e02ee8:	ebfff900 	bl	a3e012f0 <printf>
a3e02eec:	e59f0134 	ldr	r0, [pc, #134]	; a3e03028 <TftpStart+0x17c>
a3e02ef0:	ebfff8fe 	bl	a3e012f0 <printf>
a3e02ef4:	e59f3130 	ldr	r3, [pc, #130]	; a3e0302c <TftpStart+0x180>
a3e02ef8:	e5930000 	ldr	r0, [r3]
a3e02efc:	e59f512c 	ldr	r5, [pc, #12c]	; a3e03030 <TftpStart+0x184>
a3e02f00:	ebfffe59 	bl	a3e0286c <PrintIPAddr>
a3e02f04:	e1a00005 	mov	r0, r5
a3e02f08:	ebfff8f8 	bl	a3e012f0 <printf>
a3e02f0c:	e59f0120 	ldr	r0, [pc, #120]	; a3e03034 <TftpStart+0x188>
a3e02f10:	ebfff8f6 	bl	a3e012f0 <printf>
a3e02f14:	e59f311c 	ldr	r3, [pc, #11c]	; a3e03038 <TftpStart+0x18c>
a3e02f18:	e5930000 	ldr	r0, [r3]
a3e02f1c:	ebfffe52 	bl	a3e0286c <PrintIPAddr>
a3e02f20:	e1a00005 	mov	r0, r5
a3e02f24:	ebfff8f1 	bl	a3e012f0 <printf>
a3e02f28:	e59f410c 	ldr	r4, [pc, #10c]	; a3e0303c <TftpStart+0x190>
a3e02f2c:	e1a01006 	mov	r1, r6
a3e02f30:	e1a00004 	mov	r0, r4
a3e02f34:	ebfff70f 	bl	a3e00b78 <StrCpy>
a3e02f38:	e59f0100 	ldr	r0, [pc, #100]	; a3e03040 <TftpStart+0x194>
a3e02f3c:	e1a01004 	mov	r1, r4
a3e02f40:	ebfff8ea 	bl	a3e012f0 <printf>
a3e02f44:	e59f30f8 	ldr	r3, [pc, #f8]	; a3e03044 <TftpStart+0x198>
a3e02f48:	e59f00f8 	ldr	r0, [pc, #f8]	; a3e03048 <TftpStart+0x19c>
a3e02f4c:	e5931000 	ldr	r1, [r3]
a3e02f50:	ebfff8e6 	bl	a3e012f0 <printf>
a3e02f54:	e59f00f0 	ldr	r0, [pc, #f0]	; a3e0304c <TftpStart+0x1a0>
a3e02f58:	e59f70f0 	ldr	r7, [pc, #f0]	; a3e03050 <TftpStart+0x1a4>
a3e02f5c:	ebfff8e3 	bl	a3e012f0 <printf>
a3e02f60:	e3a03045 	mov	r3, #69	; 0x45
a3e02f64:	e1c730b0 	strh	r3, [r7]
a3e02f68:	e3a03001 	mov	r3, #1	; 0x1
a3e02f6c:	e59f40e0 	ldr	r4, [pc, #e0]	; a3e03054 <TftpStart+0x1a8>
a3e02f70:	e59f60e0 	ldr	r6, [pc, #e0]	; a3e03058 <TftpStart+0x1ac>
a3e02f74:	e1a00008 	mov	r0, r8
a3e02f78:	e1c430b0 	strh	r3, [r4]
a3e02f7c:	e3a03000 	mov	r3, #0	; 0x0
a3e02f80:	e1c630b0 	strh	r3, [r6]
a3e02f84:	eb000039 	bl	a3e03070 <TftpTx>
a3e02f88:	e1a0500d 	mov	r5, sp
a3e02f8c:	e1a00005 	mov	r0, r5
a3e02f90:	ebfff626 	bl	a3e00830 <GetTime>
a3e02f94:	e2800005 	add	r0, r0, #5	; 0x5
a3e02f98:	e1a0a007 	mov	sl, r7
a3e02f9c:	e1a09006 	mov	r9, r6
a3e02fa0:	e1a06005 	mov	r6, r5
a3e02fa4:	e1d430b0 	ldrh	r3, [r4]
a3e02fa8:	e59f20ac 	ldr	r2, [pc, #ac]	; a3e0305c <TftpStart+0x1b0>
a3e02fac:	e2433005 	sub	r3, r3, #5	; 0x5
a3e02fb0:	e1a03803 	mov	r3, r3, lsl #16
a3e02fb4:	e3530801 	cmp	r3, #65536	; 0x10000
a3e02fb8:	e1a07002 	mov	r7, r2
a3e02fbc:	e5820000 	str	r0, [r2]
a3e02fc0:	9a00000f 	bls	a3e03004 <TftpStart+0x158>
a3e02fc4:	e3a05006 	mov	r5, #6	; 0x6
a3e02fc8:	e1a00008 	mov	r0, r8
a3e02fcc:	ebfffc46 	bl	a3e020ec <RxPacket>
a3e02fd0:	e1a00006 	mov	r0, r6
a3e02fd4:	ebfff615 	bl	a3e00830 <GetTime>
a3e02fd8:	e5973000 	ldr	r3, [r7]
a3e02fdc:	e1500003 	cmp	r0, r3
a3e02fe0:	9a000002 	bls	a3e02ff0 <TftpStart+0x144>
a3e02fe4:	e59f0074 	ldr	r0, [pc, #74]	; a3e03060 <TftpStart+0x1b4>
a3e02fe8:	ebfff8c0 	bl	a3e012f0 <printf>
a3e02fec:	e1c450b0 	strh	r5, [r4]
a3e02ff0:	e1d430b0 	ldrh	r3, [r4]
a3e02ff4:	e2433005 	sub	r3, r3, #5	; 0x5
a3e02ff8:	e1a03803 	mov	r3, r3, lsl #16
a3e02ffc:	e3530801 	cmp	r3, #65536	; 0x10000
a3e03000:	8afffff0 	bhi	a3e02fc8 <TftpStart+0x11c>
a3e03004:	e3a00001 	mov	r0, #1	; 0x1
a3e03008:	e59f2054 	ldr	r2, [pc, #54]	; a3e03064 <TftpStart+0x1b8>
a3e0300c:	e3a03000 	mov	r3, #0	; 0x0
a3e03010:	e1ca30b0 	strh	r3, [sl]
a3e03014:	e1c430b0 	strh	r3, [r4]
a3e03018:	e1c230b0 	strh	r3, [r2]
a3e0301c:	e1c930b0 	strh	r3, [r9]
a3e03020:	ea000010 	b	a3e03068 <TftpStart+0x1bc>
a3e03024:	a3e05b6c 	mvnge	r5, #110592	; 0x1b000
a3e03028:	a3e05b7c 	mvnge	r5, #126976	; 0x1f000
a3e0302c:	a3e077a8 	mvnge	r7, #44040192	; 0x2a00000
a3e03030:	a3e05b9c 	mvnge	r5, #159744	; 0x27000
a3e03034:	a3e05ba0 	mvnge	r5, #163840	; 0x28000
a3e03038:	a3e077ac 	mvnge	r7, #45088768	; 0x2b00000
a3e0303c:	a3e077f4 	mvnge	r7, #63963136	; 0x3d00000
a3e03040:	a3e05bc0 	mvnge	r5, #196608	; 0x30000
a3e03044:	a3e077d0 	mvnge	r7, #54525952	; 0x3400000
a3e03048:	a3e05be0 	mvnge	r5, #229376	; 0x38000
a3e0304c:	a3e05c08 	mvnge	r5, #2048	; 0x800
a3e03050:	a3e077b0 	mvnge	r7, #46137344	; 0x2c00000
a3e03054:	a3e077c8 	mvnge	r7, #52428800	; 0x3200000
a3e03058:	a3e077d6 	mvnge	r7, #56098816	; 0x3580000
a3e0305c:	a3e07af8 	mvnge	r7, #1015808	; 0xf8000
a3e03060:	a3e05c1c 	mvnge	r5, #7168	; 0x1c00
a3e03064:	a3e077ca 	mvnge	r7, #52953088	; 0x3280000
a3e03068:	e28dd004 	add	sp, sp, #4	; 0x4
a3e0306c:	e8bd87f0 	ldmia	sp!, {r4, r5, r6, r7, r8, r9, sl, pc}

a3e03070 <TftpTx>:
a3e03070:	e92d41f0 	stmdb	sp!, {r4, r5, r6, r7, r8, lr}
a3e03074:	e1a06000 	mov	r6, r0
a3e03078:	e3a01000 	mov	r1, #0	; 0x0
a3e0307c:	e3a02e26 	mov	r2, #608	; 0x260
a3e03080:	ebfff61b 	bl	a3e008f4 <MemSet>
a3e03084:	e59f215c 	ldr	r2, [pc, #15c]	; a3e031e8 <TftpTx+0x178>
a3e03088:	e1d230f0 	ldrsh	r3, [r2]
a3e0308c:	e286502a 	add	r5, r6, #42	; 0x2a
a3e03090:	e2433001 	sub	r3, r3, #1	; 0x1
a3e03094:	e3530003 	cmp	r3, #3	; 0x3
a3e03098:	979ff103 	ldrls	pc, [pc, r3, lsl #2]
a3e0309c:	ea000031 	b	a3e03168 <TftpTx+0xf8>
a3e030a0:	a3e030b0 	mvnge	r3, #176	; 0xb0
a3e030a4:	a3e030f0 	mvnge	r3, #240	; 0xf0
a3e030a8:	a3e03110 	mvnge	r3, #4	; 0x4
a3e030ac:	a3e03138 	mvnge	r3, #14	; 0xe
a3e030b0:	e3a02c01 	mov	r2, #256	; 0x100
a3e030b4:	e0c520b2 	strh	r2, [r5], #2
a3e030b8:	e59f412c 	ldr	r4, [pc, #12c]	; a3e031ec <TftpTx+0x17c>
a3e030bc:	e1a00005 	mov	r0, r5
a3e030c0:	e1a01004 	mov	r1, r4
a3e030c4:	ebfff6ab 	bl	a3e00b78 <StrCpy>
a3e030c8:	e1a00004 	mov	r0, r4
a3e030cc:	ebfff69e 	bl	a3e00b4c <StrLen>
a3e030d0:	e2800001 	add	r0, r0, #1	; 0x1
a3e030d4:	e0855000 	add	r5, r5, r0
a3e030d8:	e59f1110 	ldr	r1, [pc, #110]	; a3e031f0 <TftpTx+0x180>
a3e030dc:	e1a00005 	mov	r0, r5
a3e030e0:	ebfff6a4 	bl	a3e00b78 <StrCpy>
a3e030e4:	e59f3108 	ldr	r3, [pc, #108]	; a3e031f4 <TftpTx+0x184>
a3e030e8:	e2452024 	sub	r2, r5, #36	; 0x24
a3e030ec:	ea00001a 	b	a3e0315c <TftpTx+0xec>
a3e030f0:	e59f3100 	ldr	r3, [pc, #100]	; a3e031f8 <TftpTx+0x188>
a3e030f4:	e3a02b01 	mov	r2, #1024	; 0x400
a3e030f8:	e0c520b2 	strh	r2, [r5], #2
a3e030fc:	e1d320b0 	ldrh	r2, [r3]
a3e03100:	e20210ff 	and	r1, r2, #255	; 0xff
a3e03104:	e1a02422 	mov	r2, r2, lsr #8
a3e03108:	e1822401 	orr	r2, r2, r1, lsl #8
a3e0310c:	e0c520b2 	strh	r2, [r5], #2
a3e03110:	e3a03c05 	mov	r3, #1280	; 0x500
a3e03114:	e3a02c03 	mov	r2, #768	; 0x300
a3e03118:	e0c530b2 	strh	r3, [r5], #2
a3e0311c:	e0c520b2 	strh	r2, [r5], #2
a3e03120:	e59f10d4 	ldr	r1, [pc, #d4]	; a3e031fc <TftpTx+0x18c>
a3e03124:	e1a00005 	mov	r0, r5
a3e03128:	ebfff692 	bl	a3e00b78 <StrCpy>
a3e0312c:	e59f30cc 	ldr	r3, [pc, #cc]	; a3e03200 <TftpTx+0x190>
a3e03130:	e245201b 	sub	r2, r5, #27	; 0x1b
a3e03134:	ea000008 	b	a3e0315c <TftpTx+0xec>
a3e03138:	e3a03c05 	mov	r3, #1280	; 0x500
a3e0313c:	e3a02c02 	mov	r2, #512	; 0x200
a3e03140:	e0c530b2 	strh	r3, [r5], #2
a3e03144:	e0c520b2 	strh	r2, [r5], #2
a3e03148:	e59f10b4 	ldr	r1, [pc, #b4]	; a3e03204 <TftpTx+0x194>
a3e0314c:	e1a00005 	mov	r0, r5
a3e03150:	ebfff688 	bl	a3e00b78 <StrCpy>
a3e03154:	e59f30a4 	ldr	r3, [pc, #a4]	; a3e03200 <TftpTx+0x190>
a3e03158:	e2452017 	sub	r2, r5, #23	; 0x17
a3e0315c:	e1d370b0 	ldrh	r7, [r3]
a3e03160:	e0664002 	rsb	r4, r6, r2
a3e03164:	ea000000 	b	a3e0316c <TftpTx+0xfc>
a3e03168:	e8bd81f0 	ldmia	sp!, {r4, r5, r6, r7, r8, pc}
a3e0316c:	e59f8094 	ldr	r8, [pc, #94]	; a3e03208 <TftpTx+0x198>
a3e03170:	e5980000 	ldr	r0, [r8]
a3e03174:	ebfffd2b 	bl	a3e02628 <FindMacAddr>
a3e03178:	e59f508c 	ldr	r5, [pc, #8c]	; a3e0320c <TftpTx+0x19c>
a3e0317c:	e3500000 	cmp	r0, #0	; 0x0
a3e03180:	e5850000 	str	r0, [r5]
a3e03184:	059f3084 	ldreq	r3, [pc, #84]	; a3e03210 <TftpTx+0x1a0>
a3e03188:	05853000 	streq	r3, [r5]
a3e0318c:	e2860022 	add	r0, r6, #34	; 0x22
a3e03190:	e59f307c 	ldr	r3, [pc, #7c]	; a3e03214 <TftpTx+0x1a4>
a3e03194:	e1a01007 	mov	r1, r7
a3e03198:	e1d320b0 	ldrh	r2, [r3]
a3e0319c:	e1a03804 	mov	r3, r4, lsl #16
a3e031a0:	e1a03823 	mov	r3, r3, lsr #16
a3e031a4:	ebfffd9c 	bl	a3e0281c <SetUdpHeader>
a3e031a8:	e286000e 	add	r0, r6, #14	; 0xe
a3e031ac:	e59f3064 	ldr	r3, [pc, #64]	; a3e03218 <TftpTx+0x1a8>
a3e031b0:	e5982000 	ldr	r2, [r8]
a3e031b4:	e5931000 	ldr	r1, [r3]
a3e031b8:	e2843008 	add	r3, r4, #8	; 0x8
a3e031bc:	e1a03803 	mov	r3, r3, lsl #16
a3e031c0:	e1a03823 	mov	r3, r3, lsr #16
a3e031c4:	ebfffd5e 	bl	a3e02744 <SetIPHeader>
a3e031c8:	e1a00006 	mov	r0, r6
a3e031cc:	e5951000 	ldr	r1, [r5]
a3e031d0:	e3a02b02 	mov	r2, #2048	; 0x800
a3e031d4:	ebfffd4a 	bl	a3e02704 <SetEtherHeader>
a3e031d8:	e1a00006 	mov	r0, r6
a3e031dc:	e284102a 	add	r1, r4, #42	; 0x2a
a3e031e0:	e8bd41f0 	ldmia	sp!, {r4, r5, r6, r7, r8, lr}
a3e031e4:	eafffbbd 	b	a3e020e0 <TxPacket>
a3e031e8:	a3e077c8 	mvnge	r7, #52428800	; 0x3200000
a3e031ec:	a3e077f4 	mvnge	r7, #63963136	; 0x3d00000
a3e031f0:	a3e05c3c 	mvnge	r5, #15360	; 0x3c00
a3e031f4:	a3e077d4 	mvnge	r7, #55574528	; 0x3500000
a3e031f8:	a3e077ca 	mvnge	r7, #52953088	; 0x3280000
a3e031fc:	a3e05c44 	mvnge	r5, #17408	; 0x4400
a3e03200:	a3e077d6 	mvnge	r7, #56098816	; 0x3580000
a3e03204:	a3e05c54 	mvnge	r5, #21504	; 0x5400
a3e03208:	a3e077a8 	mvnge	r7, #44040192	; 0x2a00000
a3e0320c:	a3e077dc 	mvnge	r7, #57671680	; 0x3700000
a3e03210:	a3e0779c 	mvnge	r7, #40894464	; 0x2700000
a3e03214:	a3e077d8 	mvnge	r7, #56623104	; 0x3600000
a3e03218:	a3e077ac 	mvnge	r7, #45088768	; 0x2b00000

a3e0321c <TftpRx>:
a3e0321c:	e92d41f0 	stmdb	sp!, {r4, r5, r6, r7, r8, lr}
a3e03220:	e1a08000 	mov	r8, r0
a3e03224:	e24dd004 	sub	sp, sp, #4	; 0x4
a3e03228:	e1a05008 	mov	r5, r8
a3e0322c:	e0d520b2 	ldrh	r2, [r5], #2
a3e03230:	e2414002 	sub	r4, r1, #2	; 0x2
a3e03234:	e1a03802 	mov	r3, r2, lsl #16
a3e03238:	e1a03c43 	mov	r3, r3, asr #24
a3e0323c:	e1a03803 	mov	r3, r3, lsl #16
a3e03240:	e1833c02 	orr	r3, r3, r2, lsl #24
a3e03244:	e1a03843 	mov	r3, r3, asr #16
a3e03248:	e2433001 	sub	r3, r3, #1	; 0x1
a3e0324c:	e3530004 	cmp	r3, #4	; 0x4
a3e03250:	979ff103 	ldrls	pc, [pc, r3, lsl #2]
a3e03254:	ea000004 	b	a3e0326c <TftpRx+0x50>
a3e03258:	a3e033b8 	mvnge	r3, #-536870910	; 0xe0000002
a3e0325c:	a3e033b8 	mvnge	r3, #-536870910	; 0xe0000002
a3e03260:	a3e03270 	mvnge	r3, #7	; 0x7
a3e03264:	a3e033b8 	mvnge	r3, #-536870910	; 0xe0000002
a3e03268:	a3e033a4 	mvnge	r3, #-1879048190	; 0x90000002
a3e0326c:	ea000051 	b	a3e033b8 <TftpRx+0x19c>
a3e03270:	e3540001 	cmp	r4, #1	; 0x1
a3e03274:	d3a00000 	movle	r0, #0	; 0x0
a3e03278:	da00004f 	ble	a3e033bc <TftpRx+0x1a0>
a3e0327c:	e2444002 	sub	r4, r4, #2	; 0x2
a3e03280:	e0d530b2 	ldrh	r3, [r5], #2
a3e03284:	e59f20f8 	ldr	r2, [pc, #f8]	; a3e03384 <TftpRx+0x168>
a3e03288:	e20310ff 	and	r1, r3, #255	; 0xff
a3e0328c:	e1a03423 	mov	r3, r3, lsr #8
a3e03290:	e1833401 	orr	r3, r3, r1, lsl #8
a3e03294:	e1c230b0 	strh	r3, [r2]
a3e03298:	e1d210b0 	ldrh	r1, [r2]
a3e0329c:	e1a06002 	mov	r6, r2
a3e032a0:	e311007f 	tst	r1, #127	; 0x7f
a3e032a4:	1a000004 	bne	a3e032bc <TftpRx+0xa0>
a3e032a8:	ebfff883 	bl	a3e014bc <ClearLine>
a3e032ac:	e1d610b0 	ldrh	r1, [r6]
a3e032b0:	e59f00d0 	ldr	r0, [pc, #d0]	; a3e03388 <TftpRx+0x16c>
a3e032b4:	e1a01481 	mov	r1, r1, lsl #9
a3e032b8:	ebfff80c 	bl	a3e012f0 <printf>
a3e032bc:	e59f20c8 	ldr	r2, [pc, #c8]	; a3e0338c <TftpRx+0x170>
a3e032c0:	e59fc0c8 	ldr	ip, [pc, #c8]	; a3e03390 <TftpRx+0x174>
a3e032c4:	e1d230f0 	ldrsh	r3, [r2]
a3e032c8:	e1a07002 	mov	r7, r2
a3e032cc:	e3530001 	cmp	r3, #1	; 0x1
a3e032d0:	1a000009 	bne	a3e032fc <TftpRx+0xe0>
a3e032d4:	e3a02002 	mov	r2, #2	; 0x2
a3e032d8:	e3a00000 	mov	r0, #0	; 0x0
a3e032dc:	e1c720b0 	strh	r2, [r7]
a3e032e0:	e1cc00b0 	strh	r0, [ip]
a3e032e4:	e1d630b0 	ldrh	r3, [r6]
a3e032e8:	e3530001 	cmp	r3, #1	; 0x1
a3e032ec:	0a000002 	beq	a3e032fc <TftpRx+0xe0>
a3e032f0:	e3a03006 	mov	r3, #6	; 0x6
a3e032f4:	e1c730b0 	strh	r3, [r7]
a3e032f8:	ea00002f 	b	a3e033bc <TftpRx+0x1a0>
a3e032fc:	e1d600b0 	ldrh	r0, [r6]
a3e03300:	e1dc30f0 	ldrsh	r3, [ip]
a3e03304:	e1500003 	cmp	r0, r3
a3e03308:	da00002a 	ble	a3e033b8 <TftpRx+0x19c>
a3e0330c:	e1a01005 	mov	r1, r5
a3e03310:	e1a02004 	mov	r2, r4
a3e03314:	e1cc00b0 	strh	r0, [ip]
a3e03318:	e59f3074 	ldr	r3, [pc, #74]	; a3e03394 <TftpRx+0x178>
a3e0331c:	e1d600b0 	ldrh	r0, [r6]
a3e03320:	e593c000 	ldr	ip, [r3]
a3e03324:	e2400001 	sub	r0, r0, #1	; 0x1
a3e03328:	e08c0480 	add	r0, ip, r0, lsl #9
a3e0332c:	ebfff568 	bl	a3e008d4 <MemCpy>
a3e03330:	e1a0000d 	mov	r0, sp
a3e03334:	ebfff53d 	bl	a3e00830 <GetTime>
a3e03338:	e59f3058 	ldr	r3, [pc, #58]	; a3e03398 <TftpRx+0x17c>
a3e0333c:	e2800005 	add	r0, r0, #5	; 0x5
a3e03340:	e5830000 	str	r0, [r3]
a3e03344:	e1a00008 	mov	r0, r8
a3e03348:	ebffff48 	bl	a3e03070 <TftpTx>
a3e0334c:	e3540c02 	cmp	r4, #512	; 0x200
a3e03350:	aa000018 	bge	a3e033b8 <TftpRx+0x19c>
a3e03354:	ebfff858 	bl	a3e014bc <ClearLine>
a3e03358:	e1d630b0 	ldrh	r3, [r6]
a3e0335c:	e59f0038 	ldr	r0, [pc, #38]	; a3e0339c <TftpRx+0x180>
a3e03360:	e2433001 	sub	r3, r3, #1	; 0x1
a3e03364:	e0841483 	add	r1, r4, r3, lsl #9
a3e03368:	e1a02001 	mov	r2, r1
a3e0336c:	ebfff7df 	bl	a3e012f0 <printf>
a3e03370:	e59f0028 	ldr	r0, [pc, #28]	; a3e033a0 <TftpRx+0x184>
a3e03374:	ebfff7dd 	bl	a3e012f0 <printf>
a3e03378:	e3a02005 	mov	r2, #5	; 0x5
a3e0337c:	e1c720b0 	strh	r2, [r7]
a3e03380:	ea00000c 	b	a3e033b8 <TftpRx+0x19c>
a3e03384:	a3e077ca 	mvnge	r7, #52953088	; 0x3280000
a3e03388:	a3e05c68 	mvnge	r5, #26624	; 0x6800
a3e0338c:	a3e077c8 	mvnge	r7, #52428800	; 0x3200000
a3e03390:	a3e077cc 	mvnge	r7, #53477376	; 0x3300000
a3e03394:	a3e077d0 	mvnge	r7, #54525952	; 0x3400000
a3e03398:	a3e07af8 	mvnge	r7, #1015808	; 0xf8000
a3e0339c:	a3e05c84 	mvnge	r5, #33792	; 0x8400
a3e033a0:	a3e05ca4 	mvnge	r5, #41984	; 0xa400
a3e033a4:	e59f0014 	ldr	r0, [pc, #14]	; a3e033c0 <TftpRx+0x1a4>
a3e033a8:	ebfff7d0 	bl	a3e012f0 <printf>
a3e033ac:	e59f3010 	ldr	r3, [pc, #10]	; a3e033c4 <TftpRx+0x1a8>
a3e033b0:	e3a02006 	mov	r2, #6	; 0x6
a3e033b4:	e1c320b0 	strh	r2, [r3]
a3e033b8:	e3a00001 	mov	r0, #1	; 0x1
a3e033bc:	ea000001 	b	a3e033c8 <TftpRx+0x1ac>
a3e033c0:	a3e05cb4 	mvnge	r5, #46080	; 0xb400
a3e033c4:	a3e077c8 	mvnge	r7, #52428800	; 0x3200000
a3e033c8:	e28dd004 	add	sp, sp, #4	; 0x4
a3e033cc:	e8bd81f0 	ldmia	sp!, {r4, r5, r6, r7, r8, pc}

a3e033d0 <FlashCheck>:
a3e033d0:	e92d4000 	stmdb	sp!, {lr}
a3e033d4:	e59f209c 	ldr	r2, [pc, #9c]	; a3e03478 <FlashCheck+0xa8>
a3e033d8:	e59f309c 	ldr	r3, [pc, #9c]	; a3e0347c <FlashCheck+0xac>
a3e033dc:	e5802000 	str	r2, [r0]
a3e033e0:	e5901000 	ldr	r1, [r0]
a3e033e4:	e1d3c001 	bics	ip, r3, r1
a3e033e8:	1afffffb 	bne	a3e033dc <FlashCheck+0xc>
a3e033ec:	e59f308c 	ldr	r3, [pc, #8c]	; a3e03480 <FlashCheck+0xb0>
a3e033f0:	e59f208c 	ldr	r2, [pc, #8c]	; a3e03484 <FlashCheck+0xb4>
a3e033f4:	e0013003 	and	r3, r1, r3
a3e033f8:	e3530000 	cmp	r3, #0	; 0x0
a3e033fc:	e5802000 	str	r2, [r0]
a3e03400:	03a00001 	moveq	r0, #1	; 0x1
a3e03404:	08bd8000 	ldmeqia	sp!, {pc}
a3e03408:	e59f3078 	ldr	r3, [pc, #78]	; a3e03488 <FlashCheck+0xb8>
a3e0340c:	e1510003 	cmp	r1, r3
a3e03410:	1a000002 	bne	a3e03420 <FlashCheck+0x50>
a3e03414:	e59f0070 	ldr	r0, [pc, #70]	; a3e0348c <FlashCheck+0xbc>
a3e03418:	ebfff7b4 	bl	a3e012f0 <printf>
a3e0341c:	ea000013 	b	a3e03470 <FlashCheck+0xa0>
a3e03420:	e59f3068 	ldr	r3, [pc, #68]	; a3e03490 <FlashCheck+0xc0>
a3e03424:	e1510003 	cmp	r1, r3
a3e03428:	1a000002 	bne	a3e03438 <FlashCheck+0x68>
a3e0342c:	e59f0060 	ldr	r0, [pc, #60]	; a3e03494 <FlashCheck+0xc4>
a3e03430:	ebfff7ae 	bl	a3e012f0 <printf>
a3e03434:	ea00000d 	b	a3e03470 <FlashCheck+0xa0>
a3e03438:	e59f3058 	ldr	r3, [pc, #58]	; a3e03498 <FlashCheck+0xc8>
a3e0343c:	e1510003 	cmp	r1, r3
a3e03440:	1a000002 	bne	a3e03450 <FlashCheck+0x80>
a3e03444:	e59f0050 	ldr	r0, [pc, #50]	; a3e0349c <FlashCheck+0xcc>
a3e03448:	ebfff7a8 	bl	a3e012f0 <printf>
a3e0344c:	ea000007 	b	a3e03470 <FlashCheck+0xa0>
a3e03450:	e59f3048 	ldr	r3, [pc, #48]	; a3e034a0 <FlashCheck+0xd0>
a3e03454:	e1510003 	cmp	r1, r3
a3e03458:	1a000002 	bne	a3e03468 <FlashCheck+0x98>
a3e0345c:	e59f0040 	ldr	r0, [pc, #40]	; a3e034a4 <FlashCheck+0xd4>
a3e03460:	ebfff7a2 	bl	a3e012f0 <printf>
a3e03464:	ea000001 	b	a3e03470 <FlashCheck+0xa0>
a3e03468:	e59f0038 	ldr	r0, [pc, #38]	; a3e034a8 <FlashCheck+0xd8>
a3e0346c:	ebfff79f 	bl	a3e012f0 <printf>
a3e03470:	e3a00001 	mov	r0, #1	; 0x1
a3e03474:	e8bd8000 	ldmia	sp!, {pc}
a3e03478:	00700070 	rsbeqs	r0, r0, r0, ror r0
a3e0347c:	00800080 	addeq	r0, r0, r0, lsl #1
a3e03480:	007e007e 	rsbeqs	r0, lr, lr, ror r0
a3e03484:	00ff00ff 	ldreqsh	r0, [pc, #f]	; a3e0349b <FlashCheck+0xcb>
a3e03488:	00020002 	andeq	r0, r2, r2
a3e0348c:	a3e05cd8 	mvnge	r5, #55296	; 0xd800
a3e03490:	00080008 	andeq	r0, r8, r8
a3e03494:	a3e05cf4 	mvnge	r5, #62464	; 0xf400
a3e03498:	00300030 	eoreqs	r0, r0, r0, lsr r0
a3e0349c:	a3e05d0c 	mvnge	r5, #768	; 0x300
a3e034a0:	00200020 	eoreq	r0, r0, r0, lsr #32
a3e034a4:	a3e05d28 	mvnge	r5, #2560	; 0xa00
a3e034a8:	a3e05d48 	mvnge	r5, #4608	; 0x1200

a3e034ac <EraseBlock>:
a3e034ac:	e1a01000 	mov	r1, r0
a3e034b0:	e3c134ff 	bic	r3, r1, #-16777216	; 0xff000000
a3e034b4:	e3c3373f 	bic	r3, r3, #16515072	; 0xfc0000
a3e034b8:	e3530000 	cmp	r3, #0	; 0x0
a3e034bc:	e92d4000 	stmdb	sp!, {lr}
a3e034c0:	1a000007 	bne	a3e034e4 <EraseBlock+0x38>
a3e034c4:	e59f3020 	ldr	r3, [pc, #20]	; a3e034ec <EraseBlock+0x40>
a3e034c8:	e59f2020 	ldr	r2, [pc, #20]	; a3e034f0 <EraseBlock+0x44>
a3e034cc:	e5813000 	str	r3, [r1]
a3e034d0:	e5812000 	str	r2, [r1]
a3e034d4:	ebffffbd 	bl	a3e033d0 <FlashCheck>
a3e034d8:	e2500000 	subs	r0, r0, #0	; 0x0
a3e034dc:	13a00001 	movne	r0, #1	; 0x1
a3e034e0:	e8bd8000 	ldmia	sp!, {pc}
a3e034e4:	e3a00000 	mov	r0, #0	; 0x0
a3e034e8:	e8bd8000 	ldmia	sp!, {pc}
a3e034ec:	00200020 	eoreq	r0, r0, r0, lsr #32
a3e034f0:	00d000d0 	ldreqsb	r0, [r0]

a3e034f4 <Erase>:
a3e034f4:	e92d4030 	stmdb	sp!, {r4, r5, lr}
a3e034f8:	e1a04000 	mov	r4, r0
a3e034fc:	e3c11003 	bic	r1, r1, #3	; 0x3
a3e03500:	e0805001 	add	r5, r0, r1
a3e03504:	e1540005 	cmp	r4, r5
a3e03508:	2a00000a 	bcs	a3e03538 <Erase+0x44>
a3e0350c:	ebfff7ea 	bl	a3e014bc <ClearLine>
a3e03510:	e59f0030 	ldr	r0, [pc, #30]	; a3e03548 <Erase+0x54>
a3e03514:	e1a01004 	mov	r1, r4
a3e03518:	ebfff774 	bl	a3e012f0 <printf>
a3e0351c:	e1a00004 	mov	r0, r4
a3e03520:	ebffffe1 	bl	a3e034ac <EraseBlock>
a3e03524:	e3500000 	cmp	r0, #0	; 0x0
a3e03528:	0a000005 	beq	a3e03544 <Erase+0x50>
a3e0352c:	e2844701 	add	r4, r4, #262144	; 0x40000
a3e03530:	e1540005 	cmp	r4, r5
a3e03534:	3afffff4 	bcc	a3e0350c <Erase+0x18>
a3e03538:	e59f000c 	ldr	r0, [pc, #c]	; a3e0354c <Erase+0x58>
a3e0353c:	ebfff76b 	bl	a3e012f0 <printf>
a3e03540:	e3a00001 	mov	r0, #1	; 0x1
a3e03544:	e8bd8030 	ldmia	sp!, {r4, r5, pc}
a3e03548:	a3e05d64 	mvnge	r5, #6400	; 0x1900
a3e0354c:	a3e05d88 	mvnge	r5, #8704	; 0x2200

a3e03550 <FlashWrite>:
a3e03550:	e3a0c000 	mov	ip, #0	; 0x0
a3e03554:	e92d45f0 	stmdb	sp!, {r4, r5, r6, r7, r8, sl, lr}
a3e03558:	e3a03010 	mov	r3, #16	; 0x10
a3e0355c:	e1a0a313 	mov	sl, r3, lsl r3
a3e03560:	e2433001 	sub	r3, r3, #1	; 0x1
a3e03564:	e1838803 	orr	r8, r3, r3, lsl #16
a3e03568:	e59f4078 	ldr	r4, [pc, #78]	; a3e035e8 <FlashWrite+0x98>
a3e0356c:	e59fe078 	ldr	lr, [pc, #78]	; a3e035ec <FlashWrite+0x9c>
a3e03570:	e59f7078 	ldr	r7, [pc, #78]	; a3e035f0 <FlashWrite+0xa0>
a3e03574:	e59f6078 	ldr	r6, [pc, #78]	; a3e035f4 <FlashWrite+0xa4>
a3e03578:	e59f5078 	ldr	r5, [pc, #78]	; a3e035f8 <FlashWrite+0xa8>
a3e0357c:	e1a0282a 	mov	r2, sl, lsr #16
a3e03580:	e5804000 	str	r4, [r0]
a3e03584:	e5903000 	ldr	r3, [r0]
a3e03588:	e003300e 	and	r3, r3, lr
a3e0358c:	e153000e 	cmp	r3, lr
a3e03590:	1afffffa 	bne	a3e03580 <FlashWrite+0x30>
a3e03594:	e2422001 	sub	r2, r2, #1	; 0x1
a3e03598:	e3720001 	cmn	r2, #1	; 0x1
a3e0359c:	e5808000 	str	r8, [r0]
a3e035a0:	0a000005 	beq	a3e035bc <FlashWrite+0x6c>
a3e035a4:	e2422001 	sub	r2, r2, #1	; 0x1
a3e035a8:	e4913004 	ldr	r3, [r1], #4
a3e035ac:	e3720001 	cmn	r2, #1	; 0x1
a3e035b0:	e780300c 	str	r3, [r0, ip]
a3e035b4:	e28cc004 	add	ip, ip, #4	; 0x4
a3e035b8:	1afffff9 	bne	a3e035a4 <FlashWrite+0x54>
a3e035bc:	e5807000 	str	r7, [r0]
a3e035c0:	e59f2024 	ldr	r2, [pc, #24]	; a3e035ec <FlashWrite+0x9c>
a3e035c4:	e5903000 	ldr	r3, [r0]
a3e035c8:	e0033002 	and	r3, r3, r2
a3e035cc:	e1530002 	cmp	r3, r2
a3e035d0:	1afffffb 	bne	a3e035c4 <FlashWrite+0x74>
a3e035d4:	e15c0005 	cmp	ip, r5
a3e035d8:	e5806000 	str	r6, [r0]
a3e035dc:	9affffe6 	bls	a3e0357c <FlashWrite+0x2c>
a3e035e0:	e3a00001 	mov	r0, #1	; 0x1
a3e035e4:	e8bd85f0 	ldmia	sp!, {r4, r5, r6, r7, r8, sl, pc}
a3e035e8:	00e800e8 	rsceq	r0, r8, r8, ror #1
a3e035ec:	00800080 	addeq	r0, r0, r0, lsl #1
a3e035f0:	00d000d0 	ldreqsb	r0, [r0]
a3e035f4:	00ff00ff 	ldreqsh	r0, [pc, #f]	; a3e0360b <DoTest+0xf>
a3e035f8:	0003ffff 	streqd	pc, [r3], -pc

a3e035fc <DoTest>:
a3e035fc:	e92d4010 	stmdb	sp!, {r4, lr}
a3e03600:	e1a04001 	mov	r4, r1
a3e03604:	e59f103c 	ldr	r1, [pc, #3c]	; a3e03648 <DoTest+0x4c>
a3e03608:	e24dd004 	sub	sp, sp, #4	; 0x4
a3e0360c:	e5940004 	ldr	r0, [r4, #4]
a3e03610:	ebfff543 	bl	a3e00b24 <StrCmp>
a3e03614:	e3500000 	cmp	r0, #0	; 0x0
a3e03618:	1a000008 	bne	a3e03640 <DoTest+0x44>
a3e0361c:	e28d1002 	add	r1, sp, #2	; 0x2
a3e03620:	e5940008 	ldr	r0, [r4, #8]
a3e03624:	e3a02008 	mov	r2, #8	; 0x8
a3e03628:	ebfff571 	bl	a3e00bf4 <HexToInt>
a3e0362c:	e3500000 	cmp	r0, #0	; 0x0
a3e03630:	0a000003 	beq	a3e03644 <DoTest+0x48>
a3e03634:	e59f2010 	ldr	r2, [pc, #10]	; a3e0364c <DoTest+0x50>
a3e03638:	e5dd3002 	ldrb	r3, [sp, #2]
a3e0363c:	e5c23000 	strb	r3, [r2]
a3e03640:	e3a00001 	mov	r0, #1	; 0x1
a3e03644:	ea000001 	b	a3e03650 <DoTest+0x54>
a3e03648:	a3e05d8c 	mvnge	r5, #8960	; 0x2300
a3e0364c:	10600000 	rsbne	r0, r0, r0
a3e03650:	e28dd004 	add	sp, sp, #4	; 0x4
a3e03654:	e8bd8010 	ldmia	sp!, {r4, pc}

a3e03658 <DoBoot>:
a3e03658:	e92d4010 	stmdb	sp!, {r4, lr}
a3e0365c:	e1a04000 	mov	r4, r0
a3e03660:	e3540001 	cmp	r4, #1	; 0x1
a3e03664:	1a000002 	bne	a3e03674 <DoBoot+0x1c>
a3e03668:	eb000848 	bl	a3e05790 <boot_kernel>
a3e0366c:	e1a00004 	mov	r0, r4
a3e03670:	e8bd8010 	ldmia	sp!, {r4, pc}
a3e03674:	e3a00000 	mov	r0, #0	; 0x0
a3e03678:	e8bd8010 	ldmia	sp!, {r4, pc}

a3e0367c <DoReset>:
a3e0367c:	e92d4010 	stmdb	sp!, {r4, lr}
a3e03680:	e1a04000 	mov	r4, r0
a3e03684:	e3a00000 	mov	r0, #0	; 0x0
a3e03688:	e3540001 	cmp	r4, #1	; 0x1
a3e0368c:	1a000005 	bne	a3e036a8 <DoReset+0x2c>
a3e03690:	e1a0e00f 	mov	lr, pc
a3e03694:	e1a0f000 	mov	pc, r0
a3e03698:	e59f000c 	ldr	r0, [pc, #c]	; a3e036ac <DoReset+0x30>
a3e0369c:	ebfff713 	bl	a3e012f0 <printf>
a3e036a0:	e1a00004 	mov	r0, r4
a3e036a4:	e8bd8010 	ldmia	sp!, {r4, pc}
a3e036a8:	e8bd8010 	ldmia	sp!, {r4, pc}
a3e036ac:	a3e05d90 	mvnge	r5, #9216	; 0x2400

a3e036b0 <DoDownLoad>:
a3e036b0:	e3500002 	cmp	r0, #2	; 0x2
a3e036b4:	e92d4010 	stmdb	sp!, {r4, lr}
a3e036b8:	e1a04001 	mov	r4, r1
a3e036bc:	1a00001f 	bne	a3e03740 <DoDownLoad+0x90>
a3e036c0:	e5940004 	ldr	r0, [r4, #4]
a3e036c4:	e59f1090 	ldr	r1, [pc, #90]	; a3e0375c <DoDownLoad+0xac>
a3e036c8:	ebfff515 	bl	a3e00b24 <StrCmp>
a3e036cc:	e3500000 	cmp	r0, #0	; 0x0
a3e036d0:	1a000003 	bne	a3e036e4 <DoDownLoad+0x34>
a3e036d4:	e59f0084 	ldr	r0, [pc, #84]	; a3e03760 <DoDownLoad+0xb0>
a3e036d8:	e3a01811 	mov	r1, #1114112	; 0x110000
a3e036dc:	ebfff41b 	bl	a3e00750 <Download>
a3e036e0:	ea00001b 	b	a3e03754 <DoDownLoad+0xa4>
a3e036e4:	e5940004 	ldr	r0, [r4, #4]
a3e036e8:	e59f1074 	ldr	r1, [pc, #74]	; a3e03764 <DoDownLoad+0xb4>
a3e036ec:	ebfff50c 	bl	a3e00b24 <StrCmp>
a3e036f0:	e3500000 	cmp	r0, #0	; 0x0
a3e036f4:	1a000003 	bne	a3e03708 <DoDownLoad+0x58>
a3e036f8:	e59f0068 	ldr	r0, [pc, #68]	; a3e03768 <DoDownLoad+0xb8>
a3e036fc:	e3a01606 	mov	r1, #6291456	; 0x600000
a3e03700:	ebfff412 	bl	a3e00750 <Download>
a3e03704:	ea000012 	b	a3e03754 <DoDownLoad+0xa4>
a3e03708:	e5940004 	ldr	r0, [r4, #4]
a3e0370c:	e59f1058 	ldr	r1, [pc, #58]	; a3e0376c <DoDownLoad+0xbc>
a3e03710:	ebfff503 	bl	a3e00b24 <StrCmp>
a3e03714:	e3500000 	cmp	r0, #0	; 0x0
a3e03718:	1a000003 	bne	a3e0372c <DoDownLoad+0x7c>
a3e0371c:	e59f004c 	ldr	r0, [pc, #4c]	; a3e03770 <DoDownLoad+0xc0>
a3e03720:	e3a01903 	mov	r1, #49152	; 0xc000
a3e03724:	ebfff409 	bl	a3e00750 <Download>
a3e03728:	ea000009 	b	a3e03754 <DoDownLoad+0xa4>
a3e0372c:	e5940004 	ldr	r0, [r4, #4]
a3e03730:	e59f103c 	ldr	r1, [pc, #3c]	; a3e03774 <DoDownLoad+0xc4>
a3e03734:	ebfff4fa 	bl	a3e00b24 <StrCmp>
a3e03738:	e3500000 	cmp	r0, #0	; 0x0
a3e0373c:	0a000001 	beq	a3e03748 <DoDownLoad+0x98>
a3e03740:	e3a00000 	mov	r0, #0	; 0x0
a3e03744:	e8bd8010 	ldmia	sp!, {r4, pc}
a3e03748:	e59f0028 	ldr	r0, [pc, #28]	; a3e03778 <DoDownLoad+0xc8>
a3e0374c:	e3a01617 	mov	r1, #24117248	; 0x1700000
a3e03750:	ebfff3fe 	bl	a3e00750 <Download>
a3e03754:	e3a00001 	mov	r0, #1	; 0x1
a3e03758:	e8bd8010 	ldmia	sp!, {r4, pc}
a3e0375c:	a3e05da4 	mvnge	r5, #10496	; 0x2900
a3e03760:	a00c0000 	andge	r0, ip, r0
a3e03764:	a3e05dac 	mvnge	r5, #11008	; 0x2b00
a3e03768:	a0600000 	rsbge	r0, r0, r0
a3e0376c:	a3e05db4 	mvnge	r5, #11520	; 0x2d00
a3e03770:	a3d00000 	bicges	r0, r0, #0	; 0x0
a3e03774:	a3e05dbc 	mvnge	r5, #12032	; 0x2f00
a3e03778:	a1600000 	cmnge	r0, r0

a3e0377c <DoFlash>:
a3e0377c:	e92d40f0 	stmdb	sp!, {r4, r5, r6, r7, lr}
a3e03780:	e3a05000 	mov	r5, #0	; 0x0
a3e03784:	e3500002 	cmp	r0, #2	; 0x2
a3e03788:	e1a04001 	mov	r4, r1
a3e0378c:	0a000001 	beq	a3e03798 <DoFlash+0x1c>
a3e03790:	e1a00005 	mov	r0, r5
a3e03794:	e8bd80f0 	ldmia	sp!, {r4, r5, r6, r7, pc}
a3e03798:	e5940004 	ldr	r0, [r4, #4]
a3e0379c:	e59f1134 	ldr	r1, [pc, #134]	; a3e038d8 <DoFlash+0x15c>
a3e037a0:	ebfff4df 	bl	a3e00b24 <StrCmp>
a3e037a4:	e3500000 	cmp	r0, #0	; 0x0
a3e037a8:	1a000005 	bne	a3e037c4 <DoFlash+0x48>
a3e037ac:	e3a05703 	mov	r5, #786432	; 0xc0000
a3e037b0:	e3a04811 	mov	r4, #1114112	; 0x110000
a3e037b4:	e59f0120 	ldr	r0, [pc, #120]	; a3e038dc <DoFlash+0x160>
a3e037b8:	e59f6120 	ldr	r6, [pc, #120]	; a3e038e0 <DoFlash+0x164>
a3e037bc:	ebfff6cb 	bl	a3e012f0 <printf>
a3e037c0:	ea00001e 	b	a3e03840 <DoFlash+0xc4>
a3e037c4:	e5940004 	ldr	r0, [r4, #4]
a3e037c8:	e59f1114 	ldr	r1, [pc, #114]	; a3e038e4 <DoFlash+0x168>
a3e037cc:	ebfff4d4 	bl	a3e00b24 <StrCmp>
a3e037d0:	e3500000 	cmp	r0, #0	; 0x0
a3e037d4:	1a000005 	bne	a3e037f0 <DoFlash+0x74>
a3e037d8:	e3a05602 	mov	r5, #2097152	; 0x200000
a3e037dc:	e3a04606 	mov	r4, #6291456	; 0x600000
a3e037e0:	e59f0100 	ldr	r0, [pc, #100]	; a3e038e8 <DoFlash+0x16c>
a3e037e4:	e59f6100 	ldr	r6, [pc, #100]	; a3e038ec <DoFlash+0x170>
a3e037e8:	ebfff6c0 	bl	a3e012f0 <printf>
a3e037ec:	ea000013 	b	a3e03840 <DoFlash+0xc4>
a3e037f0:	e5940004 	ldr	r0, [r4, #4]
a3e037f4:	e59f10f4 	ldr	r1, [pc, #f4]	; a3e038f0 <DoFlash+0x174>
a3e037f8:	ebfff4c9 	bl	a3e00b24 <StrCmp>
a3e037fc:	e3500000 	cmp	r0, #0	; 0x0
a3e03800:	1a000004 	bne	a3e03818 <DoFlash+0x9c>
a3e03804:	e3a04903 	mov	r4, #49152	; 0xc000
a3e03808:	e59f00e4 	ldr	r0, [pc, #e4]	; a3e038f4 <DoFlash+0x178>
a3e0380c:	e59f60e4 	ldr	r6, [pc, #e4]	; a3e038f8 <DoFlash+0x17c>
a3e03810:	ebfff6b6 	bl	a3e012f0 <printf>
a3e03814:	ea000009 	b	a3e03840 <DoFlash+0xc4>
a3e03818:	e5940004 	ldr	r0, [r4, #4]
a3e0381c:	e59f10d8 	ldr	r1, [pc, #d8]	; a3e038fc <DoFlash+0x180>
a3e03820:	ebfff4bf 	bl	a3e00b24 <StrCmp>
a3e03824:	e3500000 	cmp	r0, #0	; 0x0
a3e03828:	1affffd8 	bne	a3e03790 <DoFlash+0x14>
a3e0382c:	e3a05609 	mov	r5, #9437184	; 0x900000
a3e03830:	e3a04617 	mov	r4, #24117248	; 0x1700000
a3e03834:	e59f00c4 	ldr	r0, [pc, #c4]	; a3e03900 <DoFlash+0x184>
a3e03838:	e59f60c4 	ldr	r6, [pc, #c4]	; a3e03904 <DoFlash+0x188>
a3e0383c:	ebfff6ab 	bl	a3e012f0 <printf>
a3e03840:	e1a01005 	mov	r1, r5
a3e03844:	e0852004 	add	r2, r5, r4
a3e03848:	e59f00b8 	ldr	r0, [pc, #b8]	; a3e03908 <DoFlash+0x18c>
a3e0384c:	e2422001 	sub	r2, r2, #1	; 0x1
a3e03850:	ebfff6a6 	bl	a3e012f0 <printf>
a3e03854:	e1a00005 	mov	r0, r5
a3e03858:	e1a01004 	mov	r1, r4
a3e0385c:	ebffff24 	bl	a3e034f4 <Erase>
a3e03860:	e3500000 	cmp	r0, #0	; 0x0
a3e03864:	0a00001a 	beq	a3e038d4 <DoFlash+0x158>
a3e03868:	e59f009c 	ldr	r0, [pc, #9c]	; a3e0390c <DoFlash+0x190>
a3e0386c:	ebfff69f 	bl	a3e012f0 <printf>
a3e03870:	e59f0098 	ldr	r0, [pc, #98]	; a3e03910 <DoFlash+0x194>
a3e03874:	e59f7098 	ldr	r7, [pc, #98]	; a3e03914 <DoFlash+0x198>
a3e03878:	ebfff69c 	bl	a3e012f0 <printf>
a3e0387c:	e1a00007 	mov	r0, r7
a3e03880:	e1a01005 	mov	r1, r5
a3e03884:	ebfff699 	bl	a3e012f0 <printf>
a3e03888:	e1a00005 	mov	r0, r5
a3e0388c:	e1a01006 	mov	r1, r6
a3e03890:	ebffff2e 	bl	a3e03550 <FlashWrite>
a3e03894:	e3500000 	cmp	r0, #0	; 0x0
a3e03898:	0a000005 	beq	a3e038b4 <DoFlash+0x138>
a3e0389c:	e2855701 	add	r5, r5, #262144	; 0x40000
a3e038a0:	e2866701 	add	r6, r6, #262144	; 0x40000
a3e038a4:	ebfff704 	bl	a3e014bc <ClearLine>
a3e038a8:	e2444701 	sub	r4, r4, #262144	; 0x40000
a3e038ac:	e3540000 	cmp	r4, #0	; 0x0
a3e038b0:	cafffff1 	bgt	a3e0387c <DoFlash+0x100>
a3e038b4:	e1a00007 	mov	r0, r7
a3e038b8:	e1a01005 	mov	r1, r5
a3e038bc:	ebfff68b 	bl	a3e012f0 <printf>
a3e038c0:	e59f0050 	ldr	r0, [pc, #50]	; a3e03918 <DoFlash+0x19c>
a3e038c4:	ebfff689 	bl	a3e012f0 <printf>
a3e038c8:	e59f304c 	ldr	r3, [pc, #4c]	; a3e0391c <DoFlash+0x1a0>
a3e038cc:	e3a00001 	mov	r0, #1	; 0x1
a3e038d0:	e5853000 	str	r3, [r5]
a3e038d4:	e8bd80f0 	ldmia	sp!, {r4, r5, r6, r7, pc}
a3e038d8:	a3e05da4 	mvnge	r5, #10496	; 0x2900
a3e038dc:	a3e05dc0 	mvnge	r5, #12288	; 0x3000
a3e038e0:	a00c0000 	andge	r0, ip, r0
a3e038e4:	a3e05dac 	mvnge	r5, #11008	; 0x2b00
a3e038e8:	a3e05ddc 	mvnge	r5, #14080	; 0x3700
a3e038ec:	a0600000 	rsbge	r0, r0, r0
a3e038f0:	a3e05db4 	mvnge	r5, #11520	; 0x2d00
a3e038f4:	a3e05df8 	mvnge	r5, #15872	; 0x3e00
a3e038f8:	a3d00000 	bicges	r0, r0, #0	; 0x0
a3e038fc:	a3e05dbc 	mvnge	r5, #12032	; 0x2f00
a3e03900:	a3e05e18 	mvnge	r5, #384	; 0x180
a3e03904:	a1600000 	cmnge	r0, r0
a3e03908:	a3e05e38 	mvnge	r5, #896	; 0x380
a3e0390c:	a3e05e64 	mvnge	r5, #1600	; 0x640
a3e03910:	a3e05e70 	mvnge	r5, #1792	; 0x700
a3e03914:	a3e05e84 	mvnge	r5, #2112	; 0x840
a3e03918:	a3e05ea8 	mvnge	r5, #2688	; 0xa80
a3e0391c:	00ff00ff 	ldreqsh	r0, [pc, #f]	; a3e03933 <DoErase+0x13>

a3e03920 <DoErase>:
a3e03920:	e92d4030 	stmdb	sp!, {r4, r5, lr}
a3e03924:	e3500001 	cmp	r0, #1	; 0x1
a3e03928:	e3a05000 	mov	r5, #0	; 0x0
a3e0392c:	e1a04001 	mov	r4, r1
a3e03930:	e24dd008 	sub	sp, sp, #8	; 0x8
a3e03934:	e58d5004 	str	r5, [sp, #4]
a3e03938:	1a000003 	bne	a3e0394c <DoErase+0x2c>
a3e0393c:	e59f00f0 	ldr	r0, [pc, #f0]	; a3e03a34 <DoErase+0x114>
a3e03940:	ebfff66a 	bl	a3e012f0 <printf>
a3e03944:	e3a00000 	mov	r0, #0	; 0x0
a3e03948:	ea00004d 	b	a3e03a84 <DoErase+0x164>
a3e0394c:	e3500002 	cmp	r0, #2	; 0x2
a3e03950:	1a000021 	bne	a3e039dc <DoErase+0xbc>
a3e03954:	e5940004 	ldr	r0, [r4, #4]
a3e03958:	e59f10d8 	ldr	r1, [pc, #d8]	; a3e03a38 <DoErase+0x118>
a3e0395c:	ebfff470 	bl	a3e00b24 <StrCmp>
a3e03960:	e3500000 	cmp	r0, #0	; 0x0
a3e03964:	1a000002 	bne	a3e03974 <DoErase+0x54>
a3e03968:	e3a03703 	mov	r3, #786432	; 0xc0000
a3e0396c:	e3a02811 	mov	r2, #1114112	; 0x110000
a3e03970:	ea000017 	b	a3e039d4 <DoErase+0xb4>
a3e03974:	e5940004 	ldr	r0, [r4, #4]
a3e03978:	e59f10bc 	ldr	r1, [pc, #bc]	; a3e03a3c <DoErase+0x11c>
a3e0397c:	ebfff468 	bl	a3e00b24 <StrCmp>
a3e03980:	e3500000 	cmp	r0, #0	; 0x0
a3e03984:	1a000002 	bne	a3e03994 <DoErase+0x74>
a3e03988:	e3a03602 	mov	r3, #2097152	; 0x200000
a3e0398c:	e3a02606 	mov	r2, #6291456	; 0x600000
a3e03990:	ea00000f 	b	a3e039d4 <DoErase+0xb4>
a3e03994:	e5940004 	ldr	r0, [r4, #4]
a3e03998:	e59f10a0 	ldr	r1, [pc, #a0]	; a3e03a40 <DoErase+0x120>
a3e0399c:	ebfff460 	bl	a3e00b24 <StrCmp>
a3e039a0:	e3500000 	cmp	r0, #0	; 0x0
a3e039a4:	1a000003 	bne	a3e039b8 <DoErase+0x98>
a3e039a8:	e3a03903 	mov	r3, #49152	; 0xc000
a3e039ac:	e58d0004 	str	r0, [sp, #4]
a3e039b0:	e58d3000 	str	r3, [sp]
a3e039b4:	ea000016 	b	a3e03a14 <DoErase+0xf4>
a3e039b8:	e5940004 	ldr	r0, [r4, #4]
a3e039bc:	e59f1080 	ldr	r1, [pc, #80]	; a3e03a44 <DoErase+0x124>
a3e039c0:	ebfff457 	bl	a3e00b24 <StrCmp>
a3e039c4:	e3500000 	cmp	r0, #0	; 0x0
a3e039c8:	1affffdd 	bne	a3e03944 <DoErase+0x24>
a3e039cc:	e3a03609 	mov	r3, #9437184	; 0x900000
a3e039d0:	e3a02617 	mov	r2, #24117248	; 0x1700000
a3e039d4:	e88d000c 	stmia	sp, {r2, r3}
a3e039d8:	ea00000d 	b	a3e03a14 <DoErase+0xf4>
a3e039dc:	e3500003 	cmp	r0, #3	; 0x3
a3e039e0:	1a00000b 	bne	a3e03a14 <DoErase+0xf4>
a3e039e4:	e28d1004 	add	r1, sp, #4	; 0x4
a3e039e8:	e5940004 	ldr	r0, [r4, #4]
a3e039ec:	e3a02020 	mov	r2, #32	; 0x20
a3e039f0:	ebfff47f 	bl	a3e00bf4 <HexToInt>
a3e039f4:	e3500000 	cmp	r0, #0	; 0x0
a3e039f8:	0a000021 	beq	a3e03a84 <DoErase+0x164>
a3e039fc:	e1a0100d 	mov	r1, sp
a3e03a00:	e5940008 	ldr	r0, [r4, #8]
a3e03a04:	e3a02020 	mov	r2, #32	; 0x20
a3e03a08:	ebfff479 	bl	a3e00bf4 <HexToInt>
a3e03a0c:	e3500000 	cmp	r0, #0	; 0x0
a3e03a10:	0a00001b 	beq	a3e03a84 <DoErase+0x164>
a3e03a14:	e59dc004 	ldr	ip, [sp, #4]
a3e03a18:	e3cc34ff 	bic	r3, ip, #-16777216	; 0xff000000
a3e03a1c:	e3c3373f 	bic	r3, r3, #16515072	; 0xfc0000
a3e03a20:	e3530000 	cmp	r3, #0	; 0x0
a3e03a24:	0a000008 	beq	a3e03a4c <DoErase+0x12c>
a3e03a28:	e59f0018 	ldr	r0, [pc, #18]	; a3e03a48 <DoErase+0x128>
a3e03a2c:	ebfff62f 	bl	a3e012f0 <printf>
a3e03a30:	eaffffc3 	b	a3e03944 <DoErase+0x24>
a3e03a34:	a3e05eb4 	mvnge	r5, #2880	; 0xb40
a3e03a38:	a3e05da4 	mvnge	r5, #10496	; 0x2900
a3e03a3c:	a3e05dac 	mvnge	r5, #11008	; 0x2b00
a3e03a40:	a3e05db4 	mvnge	r5, #11520	; 0x2d00
a3e03a44:	a3e05dbc 	mvnge	r5, #12032	; 0x2f00
a3e03a48:	a3e05efc 	mvnge	r5, #4032	; 0xfc0
a3e03a4c:	e1a0100c 	mov	r1, ip
a3e03a50:	e59d2000 	ldr	r2, [sp]
a3e03a54:	e59f002c 	ldr	r0, [pc, #2c]	; a3e03a88 <DoErase+0x168>
a3e03a58:	e08c2002 	add	r2, ip, r2
a3e03a5c:	e2422001 	sub	r2, r2, #1	; 0x1
a3e03a60:	ebfff622 	bl	a3e012f0 <printf>
a3e03a64:	e59d0004 	ldr	r0, [sp, #4]
a3e03a68:	e59d1000 	ldr	r1, [sp]
a3e03a6c:	ebfffea0 	bl	a3e034f4 <Erase>
a3e03a70:	e3500000 	cmp	r0, #0	; 0x0
a3e03a74:	0a000002 	beq	a3e03a84 <DoErase+0x164>
a3e03a78:	e59f000c 	ldr	r0, [pc, #c]	; a3e03a8c <DoErase+0x16c>
a3e03a7c:	ebfff61b 	bl	a3e012f0 <printf>
a3e03a80:	e3a00001 	mov	r0, #1	; 0x1
a3e03a84:	ea000001 	b	a3e03a90 <DoErase+0x170>
a3e03a88:	a3e05e38 	mvnge	r5, #896	; 0x380
a3e03a8c:	a3e05f20 	mvnge	r5, #128	; 0x80
a3e03a90:	e28dd008 	add	sp, sp, #8	; 0x8
a3e03a94:	e8bd8030 	ldmia	sp!, {r4, r5, pc}

a3e03a98 <DoHelp>:
a3e03a98:	e3500001 	cmp	r0, #1	; 0x1
a3e03a9c:	e92d4010 	stmdb	sp!, {r4, lr}
a3e03aa0:	e1a04001 	mov	r4, r1
a3e03aa4:	1a000020 	bne	a3e03b2c <DoHelp+0x94>
a3e03aa8:	e59f03d8 	ldr	r0, [pc, #3d8]	; a3e03e88 <DoHelp+0x3f0>
a3e03aac:	ebfff60f 	bl	a3e012f0 <printf>
a3e03ab0:	e59f03d4 	ldr	r0, [pc, #3d4]	; a3e03e8c <DoHelp+0x3f4>
a3e03ab4:	ebfff60d 	bl	a3e012f0 <printf>
a3e03ab8:	e59f03d0 	ldr	r0, [pc, #3d0]	; a3e03e90 <DoHelp+0x3f8>
a3e03abc:	ebfff60b 	bl	a3e012f0 <printf>
a3e03ac0:	e59f03cc 	ldr	r0, [pc, #3cc]	; a3e03e94 <DoHelp+0x3fc>
a3e03ac4:	ebfff609 	bl	a3e012f0 <printf>
a3e03ac8:	e59f03c8 	ldr	r0, [pc, #3c8]	; a3e03e98 <DoHelp+0x400>
a3e03acc:	ebfff607 	bl	a3e012f0 <printf>
a3e03ad0:	e59f03c4 	ldr	r0, [pc, #3c4]	; a3e03e9c <DoHelp+0x404>
a3e03ad4:	ebfff605 	bl	a3e012f0 <printf>
a3e03ad8:	e59f03c0 	ldr	r0, [pc, #3c0]	; a3e03ea0 <DoHelp+0x408>
a3e03adc:	ebfff603 	bl	a3e012f0 <printf>
a3e03ae0:	e59f03bc 	ldr	r0, [pc, #3bc]	; a3e03ea4 <DoHelp+0x40c>
a3e03ae4:	ebfff601 	bl	a3e012f0 <printf>
a3e03ae8:	e59f03b8 	ldr	r0, [pc, #3b8]	; a3e03ea8 <DoHelp+0x410>
a3e03aec:	ebfff5ff 	bl	a3e012f0 <printf>
a3e03af0:	e59f03b4 	ldr	r0, [pc, #3b4]	; a3e03eac <DoHelp+0x414>
a3e03af4:	ebfff5fd 	bl	a3e012f0 <printf>
a3e03af8:	e59f03b0 	ldr	r0, [pc, #3b0]	; a3e03eb0 <DoHelp+0x418>
a3e03afc:	ebfff5fb 	bl	a3e012f0 <printf>
a3e03b00:	e59f03ac 	ldr	r0, [pc, #3ac]	; a3e03eb4 <DoHelp+0x41c>
a3e03b04:	ebfff5f9 	bl	a3e012f0 <printf>
a3e03b08:	e59f03a8 	ldr	r0, [pc, #3a8]	; a3e03eb8 <DoHelp+0x420>
a3e03b0c:	ebfff5f7 	bl	a3e012f0 <printf>
a3e03b10:	e59f03a4 	ldr	r0, [pc, #3a4]	; a3e03ebc <DoHelp+0x424>
a3e03b14:	ebfff5f5 	bl	a3e012f0 <printf>
a3e03b18:	e59f03a0 	ldr	r0, [pc, #3a0]	; a3e03ec0 <DoHelp+0x428>
a3e03b1c:	ebfff5f3 	bl	a3e012f0 <printf>
a3e03b20:	e59f039c 	ldr	r0, [pc, #39c]	; a3e03ec4 <DoHelp+0x42c>
a3e03b24:	ebfff5f1 	bl	a3e012f0 <printf>
a3e03b28:	ea000128 	b	a3e03fd0 <DoHelp+0x538>
a3e03b2c:	e3500002 	cmp	r0, #2	; 0x2
a3e03b30:	1a000124 	bne	a3e03fc8 <DoHelp+0x530>
a3e03b34:	e59f038c 	ldr	r0, [pc, #38c]	; a3e03ec8 <DoHelp+0x430>
a3e03b38:	e5941004 	ldr	r1, [r4, #4]
a3e03b3c:	ebfff5eb 	bl	a3e012f0 <printf>
a3e03b40:	e5940004 	ldr	r0, [r4, #4]
a3e03b44:	e59f1380 	ldr	r1, [pc, #380]	; a3e03ecc <DoHelp+0x434>
a3e03b48:	ebfff3f5 	bl	a3e00b24 <StrCmp>
a3e03b4c:	e3500000 	cmp	r0, #0	; 0x0
a3e03b50:	1a000002 	bne	a3e03b60 <DoHelp+0xc8>
a3e03b54:	e59f0374 	ldr	r0, [pc, #374]	; a3e03ed0 <DoHelp+0x438>
a3e03b58:	ebfff5e4 	bl	a3e012f0 <printf>
a3e03b5c:	ea00011b 	b	a3e03fd0 <DoHelp+0x538>
a3e03b60:	e5940004 	ldr	r0, [r4, #4]
a3e03b64:	e59f1368 	ldr	r1, [pc, #368]	; a3e03ed4 <DoHelp+0x43c>
a3e03b68:	ebfff3ed 	bl	a3e00b24 <StrCmp>
a3e03b6c:	e3500000 	cmp	r0, #0	; 0x0
a3e03b70:	1a000002 	bne	a3e03b80 <DoHelp+0xe8>
a3e03b74:	e59f035c 	ldr	r0, [pc, #35c]	; a3e03ed8 <DoHelp+0x440>
a3e03b78:	ebfff5dc 	bl	a3e012f0 <printf>
a3e03b7c:	ea000113 	b	a3e03fd0 <DoHelp+0x538>
a3e03b80:	e5940004 	ldr	r0, [r4, #4]
a3e03b84:	e59f1350 	ldr	r1, [pc, #350]	; a3e03edc <DoHelp+0x444>
a3e03b88:	ebfff3e5 	bl	a3e00b24 <StrCmp>
a3e03b8c:	e3500000 	cmp	r0, #0	; 0x0
a3e03b90:	1a000002 	bne	a3e03ba0 <DoHelp+0x108>
a3e03b94:	e59f0344 	ldr	r0, [pc, #344]	; a3e03ee0 <DoHelp+0x448>
a3e03b98:	ebfff5d4 	bl	a3e012f0 <printf>
a3e03b9c:	ea00010b 	b	a3e03fd0 <DoHelp+0x538>
a3e03ba0:	e5940004 	ldr	r0, [r4, #4]
a3e03ba4:	e59f1338 	ldr	r1, [pc, #338]	; a3e03ee4 <DoHelp+0x44c>
a3e03ba8:	ebfff3dd 	bl	a3e00b24 <StrCmp>
a3e03bac:	e3500000 	cmp	r0, #0	; 0x0
a3e03bb0:	1a00000c 	bne	a3e03be8 <DoHelp+0x150>
a3e03bb4:	e59f032c 	ldr	r0, [pc, #32c]	; a3e03ee8 <DoHelp+0x450>
a3e03bb8:	ebfff5cc 	bl	a3e012f0 <printf>
a3e03bbc:	e59f0328 	ldr	r0, [pc, #328]	; a3e03eec <DoHelp+0x454>
a3e03bc0:	ebfff5ca 	bl	a3e012f0 <printf>
a3e03bc4:	e59f0324 	ldr	r0, [pc, #324]	; a3e03ef0 <DoHelp+0x458>
a3e03bc8:	ebfff5c8 	bl	a3e012f0 <printf>
a3e03bcc:	e59f0320 	ldr	r0, [pc, #320]	; a3e03ef4 <DoHelp+0x45c>
a3e03bd0:	ebfff5c6 	bl	a3e012f0 <printf>
a3e03bd4:	e59f031c 	ldr	r0, [pc, #31c]	; a3e03ef8 <DoHelp+0x460>
a3e03bd8:	ebfff5c4 	bl	a3e012f0 <printf>
a3e03bdc:	e59f0318 	ldr	r0, [pc, #318]	; a3e03efc <DoHelp+0x464>
a3e03be0:	ebfff5c2 	bl	a3e012f0 <printf>
a3e03be4:	ea0000f9 	b	a3e03fd0 <DoHelp+0x538>
a3e03be8:	e5940004 	ldr	r0, [r4, #4]
a3e03bec:	e59f130c 	ldr	r1, [pc, #30c]	; a3e03f00 <DoHelp+0x468>
a3e03bf0:	ebfff3cb 	bl	a3e00b24 <StrCmp>
a3e03bf4:	e3500000 	cmp	r0, #0	; 0x0
a3e03bf8:	1a00000c 	bne	a3e03c30 <DoHelp+0x198>
a3e03bfc:	e59f0300 	ldr	r0, [pc, #300]	; a3e03f04 <DoHelp+0x46c>
a3e03c00:	ebfff5ba 	bl	a3e012f0 <printf>
a3e03c04:	e59f02e0 	ldr	r0, [pc, #2e0]	; a3e03eec <DoHelp+0x454>
a3e03c08:	ebfff5b8 	bl	a3e012f0 <printf>
a3e03c0c:	e59f02f4 	ldr	r0, [pc, #2f4]	; a3e03f08 <DoHelp+0x470>
a3e03c10:	ebfff5b6 	bl	a3e012f0 <printf>
a3e03c14:	e59f02f0 	ldr	r0, [pc, #2f0]	; a3e03f0c <DoHelp+0x474>
a3e03c18:	ebfff5b4 	bl	a3e012f0 <printf>
a3e03c1c:	e59f02d4 	ldr	r0, [pc, #2d4]	; a3e03ef8 <DoHelp+0x460>
a3e03c20:	ebfff5b2 	bl	a3e012f0 <printf>
a3e03c24:	e59f02e4 	ldr	r0, [pc, #2e4]	; a3e03f10 <DoHelp+0x478>
a3e03c28:	ebfff5b0 	bl	a3e012f0 <printf>
a3e03c2c:	ea0000e7 	b	a3e03fd0 <DoHelp+0x538>
a3e03c30:	e5940004 	ldr	r0, [r4, #4]
a3e03c34:	e59f12d8 	ldr	r1, [pc, #2d8]	; a3e03f14 <DoHelp+0x47c>
a3e03c38:	ebfff3b9 	bl	a3e00b24 <StrCmp>
a3e03c3c:	e3500000 	cmp	r0, #0	; 0x0
a3e03c40:	1a00000c 	bne	a3e03c78 <DoHelp+0x1e0>
a3e03c44:	e59f02cc 	ldr	r0, [pc, #2cc]	; a3e03f18 <DoHelp+0x480>
a3e03c48:	ebfff5a8 	bl	a3e012f0 <printf>
a3e03c4c:	e59f0298 	ldr	r0, [pc, #298]	; a3e03eec <DoHelp+0x454>
a3e03c50:	ebfff5a6 	bl	a3e012f0 <printf>
a3e03c54:	e59f02c0 	ldr	r0, [pc, #2c0]	; a3e03f1c <DoHelp+0x484>
a3e03c58:	ebfff5a4 	bl	a3e012f0 <printf>
a3e03c5c:	e59f02bc 	ldr	r0, [pc, #2bc]	; a3e03f20 <DoHelp+0x488>
a3e03c60:	ebfff5a2 	bl	a3e012f0 <printf>
a3e03c64:	e59f028c 	ldr	r0, [pc, #28c]	; a3e03ef8 <DoHelp+0x460>
a3e03c68:	ebfff5a0 	bl	a3e012f0 <printf>
a3e03c6c:	e59f02b0 	ldr	r0, [pc, #2b0]	; a3e03f24 <DoHelp+0x48c>
a3e03c70:	ebfff59e 	bl	a3e012f0 <printf>
a3e03c74:	ea0000d5 	b	a3e03fd0 <DoHelp+0x538>
a3e03c78:	e5940004 	ldr	r0, [r4, #4]
a3e03c7c:	e59f12a4 	ldr	r1, [pc, #2a4]	; a3e03f28 <DoHelp+0x490>
a3e03c80:	ebfff3a7 	bl	a3e00b24 <StrCmp>
a3e03c84:	e3500000 	cmp	r0, #0	; 0x0
a3e03c88:	1a00000c 	bne	a3e03cc0 <DoHelp+0x228>
a3e03c8c:	e59f0298 	ldr	r0, [pc, #298]	; a3e03f2c <DoHelp+0x494>
a3e03c90:	ebfff596 	bl	a3e012f0 <printf>
a3e03c94:	e59f0250 	ldr	r0, [pc, #250]	; a3e03eec <DoHelp+0x454>
a3e03c98:	ebfff594 	bl	a3e012f0 <printf>
a3e03c9c:	e59f028c 	ldr	r0, [pc, #28c]	; a3e03f30 <DoHelp+0x498>
a3e03ca0:	ebfff592 	bl	a3e012f0 <printf>
a3e03ca4:	e59f024c 	ldr	r0, [pc, #24c]	; a3e03ef8 <DoHelp+0x460>
a3e03ca8:	ebfff590 	bl	a3e012f0 <printf>
a3e03cac:	e59f0280 	ldr	r0, [pc, #280]	; a3e03f34 <DoHelp+0x49c>
a3e03cb0:	ebfff58e 	bl	a3e012f0 <printf>
a3e03cb4:	e59f027c 	ldr	r0, [pc, #27c]	; a3e03f38 <DoHelp+0x4a0>
a3e03cb8:	ebfff58c 	bl	a3e012f0 <printf>
a3e03cbc:	ea0000c3 	b	a3e03fd0 <DoHelp+0x538>
a3e03cc0:	e5940004 	ldr	r0, [r4, #4]
a3e03cc4:	e59f1270 	ldr	r1, [pc, #270]	; a3e03f3c <DoHelp+0x4a4>
a3e03cc8:	ebfff395 	bl	a3e00b24 <StrCmp>
a3e03ccc:	e3500000 	cmp	r0, #0	; 0x0
a3e03cd0:	1a000010 	bne	a3e03d18 <DoHelp+0x280>
a3e03cd4:	e59f0264 	ldr	r0, [pc, #264]	; a3e03f40 <DoHelp+0x4a8>
a3e03cd8:	ebfff584 	bl	a3e012f0 <printf>
a3e03cdc:	e59f0208 	ldr	r0, [pc, #208]	; a3e03eec <DoHelp+0x454>
a3e03ce0:	ebfff582 	bl	a3e012f0 <printf>
a3e03ce4:	e59f0258 	ldr	r0, [pc, #258]	; a3e03f44 <DoHelp+0x4ac>
a3e03ce8:	ebfff580 	bl	a3e012f0 <printf>
a3e03cec:	e59f0254 	ldr	r0, [pc, #254]	; a3e03f48 <DoHelp+0x4b0>
a3e03cf0:	ebfff57e 	bl	a3e012f0 <printf>
a3e03cf4:	e59f0250 	ldr	r0, [pc, #250]	; a3e03f4c <DoHelp+0x4b4>
a3e03cf8:	ebfff57c 	bl	a3e012f0 <printf>
a3e03cfc:	e59f01f4 	ldr	r0, [pc, #1f4]	; a3e03ef8 <DoHelp+0x460>
a3e03d00:	ebfff57a 	bl	a3e012f0 <printf>
a3e03d04:	e59f0244 	ldr	r0, [pc, #244]	; a3e03f50 <DoHelp+0x4b8>
a3e03d08:	ebfff578 	bl	a3e012f0 <printf>
a3e03d0c:	e59f0240 	ldr	r0, [pc, #240]	; a3e03f54 <DoHelp+0x4bc>
a3e03d10:	ebfff576 	bl	a3e012f0 <printf>
a3e03d14:	ea0000ad 	b	a3e03fd0 <DoHelp+0x538>
a3e03d18:	e5940004 	ldr	r0, [r4, #4]
a3e03d1c:	e59f1234 	ldr	r1, [pc, #234]	; a3e03f58 <DoHelp+0x4c0>
a3e03d20:	ebfff37f 	bl	a3e00b24 <StrCmp>
a3e03d24:	e3500000 	cmp	r0, #0	; 0x0
a3e03d28:	1a00000e 	bne	a3e03d68 <DoHelp+0x2d0>
a3e03d2c:	e59f0228 	ldr	r0, [pc, #228]	; a3e03f5c <DoHelp+0x4c4>
a3e03d30:	ebfff56e 	bl	a3e012f0 <printf>
a3e03d34:	e59f01b0 	ldr	r0, [pc, #1b0]	; a3e03eec <DoHelp+0x454>
a3e03d38:	ebfff56c 	bl	a3e012f0 <printf>
a3e03d3c:	e59f0200 	ldr	r0, [pc, #200]	; a3e03f44 <DoHelp+0x4ac>
a3e03d40:	ebfff56a 	bl	a3e012f0 <printf>
a3e03d44:	e59f0214 	ldr	r0, [pc, #214]	; a3e03f60 <DoHelp+0x4c8>
a3e03d48:	ebfff568 	bl	a3e012f0 <printf>
a3e03d4c:	e59f0210 	ldr	r0, [pc, #210]	; a3e03f64 <DoHelp+0x4cc>
a3e03d50:	ebfff566 	bl	a3e012f0 <printf>
a3e03d54:	e59f019c 	ldr	r0, [pc, #19c]	; a3e03ef8 <DoHelp+0x460>
a3e03d58:	ebfff564 	bl	a3e012f0 <printf>
a3e03d5c:	e59f0204 	ldr	r0, [pc, #204]	; a3e03f68 <DoHelp+0x4d0>
a3e03d60:	ebfff562 	bl	a3e012f0 <printf>
a3e03d64:	ea000099 	b	a3e03fd0 <DoHelp+0x538>
a3e03d68:	e5940004 	ldr	r0, [r4, #4]
a3e03d6c:	e59f11f8 	ldr	r1, [pc, #1f8]	; a3e03f6c <DoHelp+0x4d4>
a3e03d70:	ebfff36b 	bl	a3e00b24 <StrCmp>
a3e03d74:	e3500000 	cmp	r0, #0	; 0x0
a3e03d78:	1a00000a 	bne	a3e03da8 <DoHelp+0x310>
a3e03d7c:	e59f01ec 	ldr	r0, [pc, #1ec]	; a3e03f70 <DoHelp+0x4d8>
a3e03d80:	ebfff55a 	bl	a3e012f0 <printf>
a3e03d84:	e59f0160 	ldr	r0, [pc, #160]	; a3e03eec <DoHelp+0x454>
a3e03d88:	ebfff558 	bl	a3e012f0 <printf>
a3e03d8c:	e59f01e0 	ldr	r0, [pc, #1e0]	; a3e03f74 <DoHelp+0x4dc>
a3e03d90:	ebfff556 	bl	a3e012f0 <printf>
a3e03d94:	e59f015c 	ldr	r0, [pc, #15c]	; a3e03ef8 <DoHelp+0x460>
a3e03d98:	ebfff554 	bl	a3e012f0 <printf>
a3e03d9c:	e59f01d4 	ldr	r0, [pc, #1d4]	; a3e03f78 <DoHelp+0x4e0>
a3e03da0:	ebfff552 	bl	a3e012f0 <printf>
a3e03da4:	ea000089 	b	a3e03fd0 <DoHelp+0x538>
a3e03da8:	e5940004 	ldr	r0, [r4, #4]
a3e03dac:	e59f11c8 	ldr	r1, [pc, #1c8]	; a3e03f7c <DoHelp+0x4e4>
a3e03db0:	ebfff35b 	bl	a3e00b24 <StrCmp>
a3e03db4:	e3500000 	cmp	r0, #0	; 0x0
a3e03db8:	1a000010 	bne	a3e03e00 <DoHelp+0x368>
a3e03dbc:	e59f01bc 	ldr	r0, [pc, #1bc]	; a3e03f80 <DoHelp+0x4e8>
a3e03dc0:	ebfff54a 	bl	a3e012f0 <printf>
a3e03dc4:	e59f0120 	ldr	r0, [pc, #120]	; a3e03eec <DoHelp+0x454>
a3e03dc8:	ebfff548 	bl	a3e012f0 <printf>
a3e03dcc:	e59f01b0 	ldr	r0, [pc, #1b0]	; a3e03f84 <DoHelp+0x4ec>
a3e03dd0:	ebfff546 	bl	a3e012f0 <printf>
a3e03dd4:	e59f01ac 	ldr	r0, [pc, #1ac]	; a3e03f88 <DoHelp+0x4f0>
a3e03dd8:	ebfff544 	bl	a3e012f0 <printf>
a3e03ddc:	e59f01a8 	ldr	r0, [pc, #1a8]	; a3e03f8c <DoHelp+0x4f4>
a3e03de0:	ebfff542 	bl	a3e012f0 <printf>
a3e03de4:	e59f010c 	ldr	r0, [pc, #10c]	; a3e03ef8 <DoHelp+0x460>
a3e03de8:	ebfff540 	bl	a3e012f0 <printf>
a3e03dec:	e59f019c 	ldr	r0, [pc, #19c]	; a3e03f90 <DoHelp+0x4f8>
a3e03df0:	ebfff53e 	bl	a3e012f0 <printf>
a3e03df4:	e59f0198 	ldr	r0, [pc, #198]	; a3e03f94 <DoHelp+0x4fc>
a3e03df8:	ebfff53c 	bl	a3e012f0 <printf>
a3e03dfc:	ea000073 	b	a3e03fd0 <DoHelp+0x538>
a3e03e00:	e5940004 	ldr	r0, [r4, #4]
a3e03e04:	e59f118c 	ldr	r1, [pc, #18c]	; a3e03f98 <DoHelp+0x500>
a3e03e08:	ebfff345 	bl	a3e00b24 <StrCmp>
a3e03e0c:	e3500000 	cmp	r0, #0	; 0x0
a3e03e10:	1a000002 	bne	a3e03e20 <DoHelp+0x388>
a3e03e14:	e59f0180 	ldr	r0, [pc, #180]	; a3e03f9c <DoHelp+0x504>
a3e03e18:	ebfff534 	bl	a3e012f0 <printf>
a3e03e1c:	ea00006b 	b	a3e03fd0 <DoHelp+0x538>
a3e03e20:	e5940004 	ldr	r0, [r4, #4]
a3e03e24:	e59f1174 	ldr	r1, [pc, #174]	; a3e03fa0 <DoHelp+0x508>
a3e03e28:	ebfff33d 	bl	a3e00b24 <StrCmp>
a3e03e2c:	e3500000 	cmp	r0, #0	; 0x0
a3e03e30:	1a00000c 	bne	a3e03e68 <DoHelp+0x3d0>
a3e03e34:	e59f0168 	ldr	r0, [pc, #168]	; a3e03fa4 <DoHelp+0x50c>
a3e03e38:	ebfff52c 	bl	a3e012f0 <printf>
a3e03e3c:	e59f00a8 	ldr	r0, [pc, #a8]	; a3e03eec <DoHelp+0x454>
a3e03e40:	ebfff52a 	bl	a3e012f0 <printf>
a3e03e44:	e59f015c 	ldr	r0, [pc, #15c]	; a3e03fa8 <DoHelp+0x510>
a3e03e48:	ebfff528 	bl	a3e012f0 <printf>
a3e03e4c:	e59f00a4 	ldr	r0, [pc, #a4]	; a3e03ef8 <DoHelp+0x460>
a3e03e50:	ebfff526 	bl	a3e012f0 <printf>
a3e03e54:	e59f0150 	ldr	r0, [pc, #150]	; a3e03fac <DoHelp+0x514>
a3e03e58:	ebfff524 	bl	a3e012f0 <printf>
a3e03e5c:	e59f014c 	ldr	r0, [pc, #14c]	; a3e03fb0 <DoHelp+0x518>
a3e03e60:	ebfff522 	bl	a3e012f0 <printf>
a3e03e64:	ea000059 	b	a3e03fd0 <DoHelp+0x538>
a3e03e68:	e5940004 	ldr	r0, [r4, #4]
a3e03e6c:	e59f1140 	ldr	r1, [pc, #140]	; a3e03fb4 <DoHelp+0x51c>
a3e03e70:	ebfff32b 	bl	a3e00b24 <StrCmp>
a3e03e74:	e3500000 	cmp	r0, #0	; 0x0
a3e03e78:	1a00004f 	bne	a3e03fbc <DoHelp+0x524>
a3e03e7c:	e59f0134 	ldr	r0, [pc, #134]	; a3e03fb8 <DoHelp+0x520>
a3e03e80:	ebfff51a 	bl	a3e012f0 <printf>
a3e03e84:	ea000051 	b	a3e03fd0 <DoHelp+0x538>
a3e03e88:	a3e05f28 	mvnge	r5, #160	; 0xa0
a3e03e8c:	a3e05f54 	mvnge	r5, #336	; 0x150
a3e03e90:	a3e05f7c 	mvnge	r5, #496	; 0x1f0
a3e03e94:	a3e05fac 	mvnge	r5, #688	; 0x2b0
a3e03e98:	a3e05fcc 	mvnge	r5, #816	; 0x330
a3e03e9c:	a3e05ff4 	mvnge	r5, #976	; 0x3d0
a3e03ea0:	a3e06020 	mvnge	r6, #32	; 0x20
a3e03ea4:	a3e06048 	mvnge	r6, #72	; 0x48
a3e03ea8:	a3e06078 	mvnge	r6, #120	; 0x78
a3e03eac:	a3e060a8 	mvnge	r6, #168	; 0xa8
a3e03eb0:	a3e060dc 	mvnge	r6, #220	; 0xdc
a3e03eb4:	a3e06118 	mvnge	r6, #6	; 0x6
a3e03eb8:	a3e06138 	mvnge	r6, #14	; 0xe
a3e03ebc:	a3e0616c 	mvnge	r6, #27	; 0x1b
a3e03ec0:	a3e061b0 	mvnge	r6, #44	; 0x2c
a3e03ec4:	a3e061f0 	mvnge	r6, #60	; 0x3c
a3e03ec8:	a3e0622c 	mvnge	r6, #-1073741822	; 0xc0000002
a3e03ecc:	a3e06248 	mvnge	r6, #-2147483644	; 0x80000004
a3e03ed0:	a3e06250 	mvnge	r6, #5	; 0x5
a3e03ed4:	a3e06270 	mvnge	r6, #7	; 0x7
a3e03ed8:	a3e06278 	mvnge	r6, #-2147483641	; 0x80000007
a3e03edc:	a3e062a4 	mvnge	r6, #1073741834	; 0x4000000a
a3e03ee0:	a3e062ac 	mvnge	r6, #-1073741814	; 0xc000000a
a3e03ee4:	a3e062c8 	mvnge	r6, #-2147483636	; 0x8000000c
a3e03ee8:	a3e062d0 	mvnge	r6, #13	; 0xd
a3e03eec:	a3e0630c 	mvnge	r6, #805306368	; 0x30000000
a3e03ef0:	a3e06324 	mvnge	r6, #-1879048192	; 0x90000000
a3e03ef4:	a3e06350 	mvnge	r6, #1073741825	; 0x40000001
a3e03ef8:	a3e0637c 	mvnge	r6, #-268435455	; 0xf0000001
a3e03efc:	a3e06390 	mvnge	r6, #1073741826	; 0x40000002
a3e03f00:	a3e063bc 	mvnge	r6, #-268435454	; 0xf0000002
a3e03f04:	a3e063c8 	mvnge	r6, #536870915	; 0x20000003
a3e03f08:	a3e06404 	mvnge	r6, #67108864	; 0x4000000
a3e03f0c:	a3e06430 	mvnge	r6, #805306368	; 0x30000000
a3e03f10:	a3e06460 	mvnge	r6, #1610612736	; 0x60000000
a3e03f14:	a3e06480 	mvnge	r6, #-2147483648	; 0x80000000
a3e03f18:	a3e06488 	mvnge	r6, #-2013265920	; 0x88000000
a3e03f1c:	a3e064bc 	mvnge	r6, #-1140850688	; 0xbc000000
a3e03f20:	a3e064ec 	mvnge	r6, #-335544320	; 0xec000000
a3e03f24:	a3e06530 	mvnge	r6, #201326592	; 0xc000000
a3e03f28:	a3e06548 	mvnge	r6, #301989888	; 0x12000000
a3e03f2c:	a3e06554 	mvnge	r6, #352321536	; 0x15000000
a3e03f30:	a3e0658c 	mvnge	r6, #587202560	; 0x23000000
a3e03f34:	a3e065d0 	mvnge	r6, #872415232	; 0x34000000
a3e03f38:	a3e065f0 	mvnge	r6, #1006632960	; 0x3c000000
a3e03f3c:	a3e06620 	mvnge	r6, #33554432	; 0x2000000
a3e03f40:	a3e06628 	mvnge	r6, #41943040	; 0x2800000
a3e03f44:	a3e06670 	mvnge	r6, #117440512	; 0x7000000
a3e03f48:	a3e06698 	mvnge	r6, #159383552	; 0x9800000
a3e03f4c:	a3e066c0 	mvnge	r6, #201326592	; 0xc000000
a3e03f50:	a3e066ec 	mvnge	r6, #247463936	; 0xec00000
a3e03f54:	a3e0670c 	mvnge	r6, #3145728	; 0x300000
a3e03f58:	a3e06724 	mvnge	r6, #9437184	; 0x900000
a3e03f5c:	a3e0672c 	mvnge	r6, #11534336	; 0xb00000
a3e03f60:	a3e06778 	mvnge	r6, #31457280	; 0x1e00000
a3e03f64:	a3e067a4 	mvnge	r6, #42991616	; 0x2900000
a3e03f68:	a3e067c0 	mvnge	r6, #50331648	; 0x3000000
a3e03f6c:	a3e067e8 	mvnge	r6, #60817408	; 0x3a00000
a3e03f70:	a3e067f0 	mvnge	r6, #62914560	; 0x3c00000
a3e03f74:	a3e06834 	mvnge	r6, #3407872	; 0x340000
a3e03f78:	a3e0687c 	mvnge	r6, #8126464	; 0x7c0000
a3e03f7c:	a3e06890 	mvnge	r6, #9437184	; 0x900000
a3e03f80:	a3e06898 	mvnge	r6, #9961472	; 0x980000
a3e03f84:	a3e068d4 	mvnge	r6, #13893632	; 0xd40000
a3e03f88:	a3e0691c 	mvnge	r6, #458752	; 0x70000
a3e03f8c:	a3e06944 	mvnge	r6, #1114112	; 0x110000
a3e03f90:	a3e0695c 	mvnge	r6, #1507328	; 0x170000
a3e03f94:	a3e06970 	mvnge	r6, #1835008	; 0x1c0000
a3e03f98:	a3e06988 	mvnge	r6, #2228224	; 0x220000
a3e03f9c:	a3e06990 	mvnge	r6, #2359296	; 0x240000
a3e03fa0:	a3e069c0 	mvnge	r6, #3145728	; 0x300000
a3e03fa4:	a3e069c8 	mvnge	r6, #3276800	; 0x320000
a3e03fa8:	a3e06a14 	mvnge	r6, #81920	; 0x14000
a3e03fac:	a3e06a50 	mvnge	r6, #327680	; 0x50000
a3e03fb0:	a3e06a5c 	mvnge	r6, #376832	; 0x5c000
a3e03fb4:	a3e06a6c 	mvnge	r6, #442368	; 0x6c000
a3e03fb8:	a3e06a74 	mvnge	r6, #475136	; 0x74000
a3e03fbc:	e59f0014 	ldr	r0, [pc, #14]	; a3e03fd8 <DoHelp+0x540>
a3e03fc0:	ebfff4ca 	bl	a3e012f0 <printf>
a3e03fc4:	ea000001 	b	a3e03fd0 <DoHelp+0x538>
a3e03fc8:	e3a00000 	mov	r0, #0	; 0x0
a3e03fcc:	e8bd8010 	ldmia	sp!, {r4, pc}
a3e03fd0:	e3a00001 	mov	r0, #1	; 0x1
a3e03fd4:	e8bd8010 	ldmia	sp!, {r4, pc}
a3e03fd8:	a3e06abc 	mvnge	r6, #770048	; 0xbc000

a3e03fdc <DoRead>:
a3e03fdc:	e92d4010 	stmdb	sp!, {r4, lr}
a3e03fe0:	e3500003 	cmp	r0, #3	; 0x3
a3e03fe4:	e1a04001 	mov	r4, r1
a3e03fe8:	e24dd008 	sub	sp, sp, #8	; 0x8
a3e03fec:	1a000002 	bne	a3e03ffc <DoRead+0x20>
a3e03ff0:	e3a03001 	mov	r3, #1	; 0x1
a3e03ff4:	e58d3004 	str	r3, [sp, #4]
a3e03ff8:	ea000007 	b	a3e0401c <DoRead+0x40>
a3e03ffc:	e3500004 	cmp	r0, #4	; 0x4
a3e04000:	1a00004a 	bne	a3e04130 <DoRead+0x154>
a3e04004:	e28d1004 	add	r1, sp, #4	; 0x4
a3e04008:	e594000c 	ldr	r0, [r4, #12]
a3e0400c:	e3a02020 	mov	r2, #32	; 0x20
a3e04010:	ebfff2f7 	bl	a3e00bf4 <HexToInt>
a3e04014:	e3500000 	cmp	r0, #0	; 0x0
a3e04018:	0a00004d 	beq	a3e04154 <DoRead+0x178>
a3e0401c:	e1a0100d 	mov	r1, sp
a3e04020:	e5940008 	ldr	r0, [r4, #8]
a3e04024:	e3a02020 	mov	r2, #32	; 0x20
a3e04028:	ebfff2f1 	bl	a3e00bf4 <HexToInt>
a3e0402c:	e3500000 	cmp	r0, #0	; 0x0
a3e04030:	0a000047 	beq	a3e04154 <DoRead+0x178>
a3e04034:	e5940004 	ldr	r0, [r4, #4]
a3e04038:	e59f10f8 	ldr	r1, [pc, #f8]	; a3e04138 <DoRead+0x15c>
a3e0403c:	ebfff2b8 	bl	a3e00b24 <StrCmp>
a3e04040:	e3500000 	cmp	r0, #0	; 0x0
a3e04044:	1a00000f 	bne	a3e04088 <DoRead+0xac>
a3e04048:	e59d3004 	ldr	r3, [sp, #4]
a3e0404c:	e1a04000 	mov	r4, r0
a3e04050:	e1540003 	cmp	r4, r3
a3e04054:	2a00003d 	bcs	a3e04150 <DoRead+0x174>
a3e04058:	e59d1000 	ldr	r1, [sp]
a3e0405c:	e59f00d8 	ldr	r0, [pc, #d8]	; a3e0413c <DoRead+0x160>
a3e04060:	e5d12000 	ldrb	r2, [r1]
a3e04064:	e2844001 	add	r4, r4, #1	; 0x1
a3e04068:	ebfff4a0 	bl	a3e012f0 <printf>
a3e0406c:	e59d2004 	ldr	r2, [sp, #4]
a3e04070:	e59d3000 	ldr	r3, [sp]
a3e04074:	e1540002 	cmp	r4, r2
a3e04078:	e2833001 	add	r3, r3, #1	; 0x1
a3e0407c:	e58d3000 	str	r3, [sp]
a3e04080:	3afffff4 	bcc	a3e04058 <DoRead+0x7c>
a3e04084:	ea000031 	b	a3e04150 <DoRead+0x174>
a3e04088:	e5940004 	ldr	r0, [r4, #4]
a3e0408c:	e59f10ac 	ldr	r1, [pc, #ac]	; a3e04140 <DoRead+0x164>
a3e04090:	ebfff2a3 	bl	a3e00b24 <StrCmp>
a3e04094:	e3500000 	cmp	r0, #0	; 0x0
a3e04098:	1a00000f 	bne	a3e040dc <DoRead+0x100>
a3e0409c:	e59d3004 	ldr	r3, [sp, #4]
a3e040a0:	e1a04000 	mov	r4, r0
a3e040a4:	e1540003 	cmp	r4, r3
a3e040a8:	2a000028 	bcs	a3e04150 <DoRead+0x174>
a3e040ac:	e59d1000 	ldr	r1, [sp]
a3e040b0:	e59f008c 	ldr	r0, [pc, #8c]	; a3e04144 <DoRead+0x168>
a3e040b4:	e1d120b0 	ldrh	r2, [r1]
a3e040b8:	e2844001 	add	r4, r4, #1	; 0x1
a3e040bc:	ebfff48b 	bl	a3e012f0 <printf>
a3e040c0:	e59d2004 	ldr	r2, [sp, #4]
a3e040c4:	e59d3000 	ldr	r3, [sp]
a3e040c8:	e1540002 	cmp	r4, r2
a3e040cc:	e2833002 	add	r3, r3, #2	; 0x2
a3e040d0:	e58d3000 	str	r3, [sp]
a3e040d4:	3afffff4 	bcc	a3e040ac <DoRead+0xd0>
a3e040d8:	ea00001c 	b	a3e04150 <DoRead+0x174>
a3e040dc:	e5940004 	ldr	r0, [r4, #4]
a3e040e0:	e59f1060 	ldr	r1, [pc, #60]	; a3e04148 <DoRead+0x16c>
a3e040e4:	ebfff28e 	bl	a3e00b24 <StrCmp>
a3e040e8:	e3500000 	cmp	r0, #0	; 0x0
a3e040ec:	1a00000f 	bne	a3e04130 <DoRead+0x154>
a3e040f0:	e59d3004 	ldr	r3, [sp, #4]
a3e040f4:	e1a04000 	mov	r4, r0
a3e040f8:	e1540003 	cmp	r4, r3
a3e040fc:	2a000013 	bcs	a3e04150 <DoRead+0x174>
a3e04100:	e59d1000 	ldr	r1, [sp]
a3e04104:	e59f0040 	ldr	r0, [pc, #40]	; a3e0414c <DoRead+0x170>
a3e04108:	e5912000 	ldr	r2, [r1]
a3e0410c:	e2844001 	add	r4, r4, #1	; 0x1
a3e04110:	ebfff476 	bl	a3e012f0 <printf>
a3e04114:	e59d2004 	ldr	r2, [sp, #4]
a3e04118:	e59d3000 	ldr	r3, [sp]
a3e0411c:	e1540002 	cmp	r4, r2
a3e04120:	e2833004 	add	r3, r3, #4	; 0x4
a3e04124:	e58d3000 	str	r3, [sp]
a3e04128:	3afffff4 	bcc	a3e04100 <DoRead+0x124>
a3e0412c:	ea000007 	b	a3e04150 <DoRead+0x174>
a3e04130:	e3a00000 	mov	r0, #0	; 0x0
a3e04134:	ea000006 	b	a3e04154 <DoRead+0x178>
a3e04138:	a3e06ae0 	mvnge	r6, #917504	; 0xe0000
a3e0413c:	a3e06ae4 	mvnge	r6, #933888	; 0xe4000
a3e04140:	a3e06b0c 	mvnge	r6, #12288	; 0x3000
a3e04144:	a3e06b10 	mvnge	r6, #16384	; 0x4000
a3e04148:	a3e06b38 	mvnge	r6, #57344	; 0xe000
a3e0414c:	a3e06b3c 	mvnge	r6, #61440	; 0xf000
a3e04150:	e3a00001 	mov	r0, #1	; 0x1
a3e04154:	e28dd008 	add	sp, sp, #8	; 0x8
a3e04158:	e8bd8010 	ldmia	sp!, {r4, pc}

a3e0415c <DoWrite>:
a3e0415c:	e92d4010 	stmdb	sp!, {r4, lr}
a3e04160:	e3500004 	cmp	r0, #4	; 0x4
a3e04164:	e1a04001 	mov	r4, r1
a3e04168:	e24dd008 	sub	sp, sp, #8	; 0x8
a3e0416c:	1a000032 	bne	a3e0423c <DoWrite+0xe0>
a3e04170:	e28d1004 	add	r1, sp, #4	; 0x4
a3e04174:	e5940008 	ldr	r0, [r4, #8]
a3e04178:	e3a02020 	mov	r2, #32	; 0x20
a3e0417c:	ebfff29c 	bl	a3e00bf4 <HexToInt>
a3e04180:	e3500000 	cmp	r0, #0	; 0x0
a3e04184:	0a000041 	beq	a3e04290 <DoWrite+0x134>
a3e04188:	e1a0100d 	mov	r1, sp
a3e0418c:	e594000c 	ldr	r0, [r4, #12]
a3e04190:	e3a02020 	mov	r2, #32	; 0x20
a3e04194:	ebfff296 	bl	a3e00bf4 <HexToInt>
a3e04198:	e3500000 	cmp	r0, #0	; 0x0
a3e0419c:	0a00003b 	beq	a3e04290 <DoWrite+0x134>
a3e041a0:	e5940004 	ldr	r0, [r4, #4]
a3e041a4:	e59f1098 	ldr	r1, [pc, #98]	; a3e04244 <DoWrite+0xe8>
a3e041a8:	ebfff25d 	bl	a3e00b24 <StrCmp>
a3e041ac:	e3500000 	cmp	r0, #0	; 0x0
a3e041b0:	1a00000b 	bne	a3e041e4 <DoWrite+0x88>
a3e041b4:	e59d1004 	ldr	r1, [sp, #4]
a3e041b8:	e59f0088 	ldr	r0, [pc, #88]	; a3e04248 <DoWrite+0xec>
a3e041bc:	e5d12000 	ldrb	r2, [r1]
a3e041c0:	ebfff44a 	bl	a3e012f0 <printf>
a3e041c4:	e59d2004 	ldr	r2, [sp, #4]
a3e041c8:	e5dd3000 	ldrb	r3, [sp]
a3e041cc:	e5c23000 	strb	r3, [r2]
a3e041d0:	e59d1004 	ldr	r1, [sp, #4]
a3e041d4:	e59f0070 	ldr	r0, [pc, #70]	; a3e0424c <DoWrite+0xf0>
a3e041d8:	e5d12000 	ldrb	r2, [r1]
a3e041dc:	ebfff443 	bl	a3e012f0 <printf>
a3e041e0:	ea000029 	b	a3e0428c <DoWrite+0x130>
a3e041e4:	e5940004 	ldr	r0, [r4, #4]
a3e041e8:	e59f1060 	ldr	r1, [pc, #60]	; a3e04250 <DoWrite+0xf4>
a3e041ec:	ebfff24c 	bl	a3e00b24 <StrCmp>
a3e041f0:	e3500000 	cmp	r0, #0	; 0x0
a3e041f4:	1a00000b 	bne	a3e04228 <DoWrite+0xcc>
a3e041f8:	e59d1004 	ldr	r1, [sp, #4]
a3e041fc:	e59f0050 	ldr	r0, [pc, #50]	; a3e04254 <DoWrite+0xf8>
a3e04200:	e1d120b0 	ldrh	r2, [r1]
a3e04204:	ebfff439 	bl	a3e012f0 <printf>
a3e04208:	e59d2004 	ldr	r2, [sp, #4]
a3e0420c:	e1dd30b0 	ldrh	r3, [sp]
a3e04210:	e1c230b0 	strh	r3, [r2]
a3e04214:	e59d1004 	ldr	r1, [sp, #4]
a3e04218:	e59f0038 	ldr	r0, [pc, #38]	; a3e04258 <DoWrite+0xfc>
a3e0421c:	e1d120b0 	ldrh	r2, [r1]
a3e04220:	ebfff432 	bl	a3e012f0 <printf>
a3e04224:	ea000018 	b	a3e0428c <DoWrite+0x130>
a3e04228:	e5940004 	ldr	r0, [r4, #4]
a3e0422c:	e59f1028 	ldr	r1, [pc, #28]	; a3e0425c <DoWrite+0x100>
a3e04230:	ebfff23b 	bl	a3e00b24 <StrCmp>
a3e04234:	e3500000 	cmp	r0, #0	; 0x0
a3e04238:	0a000008 	beq	a3e04260 <DoWrite+0x104>
a3e0423c:	e3a00000 	mov	r0, #0	; 0x0
a3e04240:	ea000012 	b	a3e04290 <DoWrite+0x134>
a3e04244:	a3e06ae0 	mvnge	r6, #917504	; 0xe0000
a3e04248:	a3e06b64 	mvnge	r6, #102400	; 0x19000
a3e0424c:	a3e06b9c 	mvnge	r6, #159744	; 0x27000
a3e04250:	a3e06b0c 	mvnge	r6, #12288	; 0x3000
a3e04254:	a3e06bd4 	mvnge	r6, #217088	; 0x35000
a3e04258:	a3e06c0c 	mvnge	r6, #3072	; 0xc00
a3e0425c:	a3e06b38 	mvnge	r6, #57344	; 0xe000
a3e04260:	e59d1004 	ldr	r1, [sp, #4]
a3e04264:	e59f0028 	ldr	r0, [pc, #28]	; a3e04294 <DoWrite+0x138>
a3e04268:	e5912000 	ldr	r2, [r1]
a3e0426c:	ebfff41f 	bl	a3e012f0 <printf>
a3e04270:	e59d2004 	ldr	r2, [sp, #4]
a3e04274:	e59d3000 	ldr	r3, [sp]
a3e04278:	e5823000 	str	r3, [r2]
a3e0427c:	e59d1004 	ldr	r1, [sp, #4]
a3e04280:	e59f0010 	ldr	r0, [pc, #10]	; a3e04298 <DoWrite+0x13c>
a3e04284:	e5912000 	ldr	r2, [r1]
a3e04288:	ebfff418 	bl	a3e012f0 <printf>
a3e0428c:	e3a00001 	mov	r0, #1	; 0x1
a3e04290:	ea000001 	b	a3e0429c <DoWrite+0x140>
a3e04294:	a3e06c44 	mvnge	r6, #17408	; 0x4400
a3e04298:	a3e06c7c 	mvnge	r6, #31744	; 0x7c00
a3e0429c:	e28dd008 	add	sp, sp, #8	; 0x8
a3e042a0:	e8bd8010 	ldmia	sp!, {r4, pc}

a3e042a4 <DoMacWrite>:
a3e042a4:	e92d47f0 	stmdb	sp!, {r4, r5, r6, r7, r8, r9, sl, lr}
a3e042a8:	e3a04000 	mov	r4, #0	; 0x0
a3e042ac:	e3500003 	cmp	r0, #3	; 0x3
a3e042b0:	e1a06001 	mov	r6, r1
a3e042b4:	e24dd020 	sub	sp, sp, #32	; 0x20
a3e042b8:	0a000003 	beq	a3e042cc <DoMacWrite+0x28>
a3e042bc:	e59f01a0 	ldr	r0, [pc, #1a0]	; a3e04464 <DoMacWrite+0x1c0>
a3e042c0:	ebfff40a 	bl	a3e012f0 <printf>
a3e042c4:	e1a00004 	mov	r0, r4
a3e042c8:	ea000084 	b	a3e044e0 <DoMacWrite+0x23c>
a3e042cc:	e28d7014 	add	r7, sp, #20	; 0x14
a3e042d0:	e28d901a 	add	r9, sp, #26	; 0x1a
a3e042d4:	e1a0800d 	mov	r8, sp
a3e042d8:	e1a01008 	mov	r1, r8
a3e042dc:	e3a02702 	mov	r2, #524288	; 0x80000
a3e042e0:	e59fa180 	ldr	sl, [pc, #180]	; a3e04468 <DoMacWrite+0x1c4>
a3e042e4:	e7d43002 	ldrb	r3, [r4, r2]
a3e042e8:	e7c13004 	strb	r3, [r1, r4]
a3e042ec:	e2844001 	add	r4, r4, #1	; 0x1
a3e042f0:	e3540013 	cmp	r4, #19	; 0x13
a3e042f4:	dafffffa 	ble	a3e042e4 <DoMacWrite+0x40>
a3e042f8:	e3a04000 	mov	r4, #0	; 0x0
a3e042fc:	e1a02007 	mov	r2, r7
a3e04300:	e3a01702 	mov	r1, #524288	; 0x80000
a3e04304:	e7d43001 	ldrb	r3, [r4, r1]
a3e04308:	e7c23004 	strb	r3, [r2, r4]
a3e0430c:	e2844001 	add	r4, r4, #1	; 0x1
a3e04310:	e354000b 	cmp	r4, #11	; 0xb
a3e04314:	dafffffa 	ble	a3e04304 <DoMacWrite+0x60>
a3e04318:	e59f014c 	ldr	r0, [pc, #14c]	; a3e0446c <DoMacWrite+0x1c8>
a3e0431c:	ebfff3f3 	bl	a3e012f0 <printf>
a3e04320:	e1a00007 	mov	r0, r7
a3e04324:	ebfff965 	bl	a3e028c0 <PrintEthAddr>
a3e04328:	e1a0000a 	mov	r0, sl
a3e0432c:	ebfff3ef 	bl	a3e012f0 <printf>
a3e04330:	e59f0138 	ldr	r0, [pc, #138]	; a3e04470 <DoMacWrite+0x1cc>
a3e04334:	ebfff3ed 	bl	a3e012f0 <printf>
a3e04338:	e1a00009 	mov	r0, r9
a3e0433c:	ebfff95f 	bl	a3e028c0 <PrintEthAddr>
a3e04340:	e1a0000a 	mov	r0, sl
a3e04344:	ebfff3e9 	bl	a3e012f0 <printf>
a3e04348:	e5960004 	ldr	r0, [r6, #4]
a3e0434c:	e59f1120 	ldr	r1, [pc, #120]	; a3e04474 <DoMacWrite+0x1d0>
a3e04350:	ebfff1f3 	bl	a3e00b24 <StrCmp>
a3e04354:	e3500000 	cmp	r0, #0	; 0x0
a3e04358:	01a05000 	moveq	r5, r0
a3e0435c:	0a000008 	beq	a3e04384 <DoMacWrite+0xe0>
a3e04360:	e5960004 	ldr	r0, [r6, #4]
a3e04364:	e59f110c 	ldr	r1, [pc, #10c]	; a3e04478 <DoMacWrite+0x1d4>
a3e04368:	ebfff1ed 	bl	a3e00b24 <StrCmp>
a3e0436c:	e3500000 	cmp	r0, #0	; 0x0
a3e04370:	0a000002 	beq	a3e04380 <DoMacWrite+0xdc>
a3e04374:	e59f0100 	ldr	r0, [pc, #100]	; a3e0447c <DoMacWrite+0x1d8>
a3e04378:	ebfff3dc 	bl	a3e012f0 <printf>
a3e0437c:	ea000056 	b	a3e044dc <DoMacWrite+0x238>
a3e04380:	e3a05006 	mov	r5, #6	; 0x6
a3e04384:	e5960008 	ldr	r0, [r6, #8]
a3e04388:	e0871005 	add	r1, r7, r5
a3e0438c:	e3a02008 	mov	r2, #8	; 0x8
a3e04390:	ebfff217 	bl	a3e00bf4 <HexToInt>
a3e04394:	e2851001 	add	r1, r5, #1	; 0x1
a3e04398:	e0871001 	add	r1, r7, r1
a3e0439c:	e3a02008 	mov	r2, #8	; 0x8
a3e043a0:	e5960008 	ldr	r0, [r6, #8]
a3e043a4:	e3a04000 	mov	r4, #0	; 0x0
a3e043a8:	e2800002 	add	r0, r0, #2	; 0x2
a3e043ac:	ebfff210 	bl	a3e00bf4 <HexToInt>
a3e043b0:	e2851002 	add	r1, r5, #2	; 0x2
a3e043b4:	e0871001 	add	r1, r7, r1
a3e043b8:	e5960008 	ldr	r0, [r6, #8]
a3e043bc:	e3a02008 	mov	r2, #8	; 0x8
a3e043c0:	e2800004 	add	r0, r0, #4	; 0x4
a3e043c4:	ebfff20a 	bl	a3e00bf4 <HexToInt>
a3e043c8:	e2851003 	add	r1, r5, #3	; 0x3
a3e043cc:	e0871001 	add	r1, r7, r1
a3e043d0:	e5960008 	ldr	r0, [r6, #8]
a3e043d4:	e3a02008 	mov	r2, #8	; 0x8
a3e043d8:	e2800006 	add	r0, r0, #6	; 0x6
a3e043dc:	ebfff204 	bl	a3e00bf4 <HexToInt>
a3e043e0:	e2851004 	add	r1, r5, #4	; 0x4
a3e043e4:	e0871001 	add	r1, r7, r1
a3e043e8:	e5960008 	ldr	r0, [r6, #8]
a3e043ec:	e3a02008 	mov	r2, #8	; 0x8
a3e043f0:	e0800002 	add	r0, r0, r2
a3e043f4:	ebfff1fe 	bl	a3e00bf4 <HexToInt>
a3e043f8:	e2851005 	add	r1, r5, #5	; 0x5
a3e043fc:	e0871001 	add	r1, r7, r1
a3e04400:	e5960008 	ldr	r0, [r6, #8]
a3e04404:	e3a02008 	mov	r2, #8	; 0x8
a3e04408:	e280000a 	add	r0, r0, #10	; 0xa
a3e0440c:	ebfff1f8 	bl	a3e00bf4 <HexToInt>
a3e04410:	e1a01008 	mov	r1, r8
a3e04414:	e1a02007 	mov	r2, r7
a3e04418:	e7d23004 	ldrb	r3, [r2, r4]
a3e0441c:	e7c13004 	strb	r3, [r1, r4]
a3e04420:	e2844001 	add	r4, r4, #1	; 0x1
a3e04424:	e354000b 	cmp	r4, #11	; 0xb
a3e04428:	dafffffa 	ble	a3e04418 <DoMacWrite+0x174>
a3e0442c:	e3a00702 	mov	r0, #524288	; 0x80000
a3e04430:	ebfffc1d 	bl	a3e034ac <EraseBlock>
a3e04434:	e2504000 	subs	r4, r0, #0	; 0x0
a3e04438:	e59f0040 	ldr	r0, [pc, #40]	; a3e04480 <DoMacWrite+0x1dc>
a3e0443c:	0a000005 	beq	a3e04458 <DoMacWrite+0x1b4>
a3e04440:	e3a00702 	mov	r0, #524288	; 0x80000
a3e04444:	e1a01008 	mov	r1, r8
a3e04448:	ebfffc40 	bl	a3e03550 <FlashWrite>
a3e0444c:	e2504000 	subs	r4, r0, #0	; 0x0
a3e04450:	1a00000c 	bne	a3e04488 <DoMacWrite+0x1e4>
a3e04454:	e59f0028 	ldr	r0, [pc, #28]	; a3e04484 <DoMacWrite+0x1e0>
a3e04458:	ebfff3a4 	bl	a3e012f0 <printf>
a3e0445c:	e1a00004 	mov	r0, r4
a3e04460:	ea00001e 	b	a3e044e0 <DoMacWrite+0x23c>
a3e04464:	a3e06cb4 	mvnge	r6, #46080	; 0xb400
a3e04468:	a3e06ce0 	mvnge	r6, #57344	; 0xe000
a3e0446c:	a3e06cc4 	mvnge	r6, #50176	; 0xc400
a3e04470:	a3e06ce4 	mvnge	r6, #58368	; 0xe400
a3e04474:	a3e06d00 	mvnge	r6, #0	; 0x0
a3e04478:	a3e06d04 	mvnge	r6, #256	; 0x100
a3e0447c:	a3e06d08 	mvnge	r6, #512	; 0x200
a3e04480:	a3e06d20 	mvnge	r6, #2048	; 0x800
a3e04484:	a3e06d30 	mvnge	r6, #3072	; 0xc00
a3e04488:	e3a04000 	mov	r4, #0	; 0x0
a3e0448c:	e1a02007 	mov	r2, r7
a3e04490:	e3a01702 	mov	r1, #524288	; 0x80000
a3e04494:	e7d43001 	ldrb	r3, [r4, r1]
a3e04498:	e7c23004 	strb	r3, [r2, r4]
a3e0449c:	e2844001 	add	r4, r4, #1	; 0x1
a3e044a0:	e354000b 	cmp	r4, #11	; 0xb
a3e044a4:	dafffffa 	ble	a3e04494 <DoMacWrite+0x1f0>
a3e044a8:	e59f0034 	ldr	r0, [pc, #34]	; a3e044e4 <DoMacWrite+0x240>
a3e044ac:	ebfff38f 	bl	a3e012f0 <printf>
a3e044b0:	e1a00007 	mov	r0, r7
a3e044b4:	ebfff901 	bl	a3e028c0 <PrintEthAddr>
a3e044b8:	e1a0000a 	mov	r0, sl
a3e044bc:	ebfff38b 	bl	a3e012f0 <printf>
a3e044c0:	e59f0020 	ldr	r0, [pc, #20]	; a3e044e8 <DoMacWrite+0x244>
a3e044c4:	ebfff389 	bl	a3e012f0 <printf>
a3e044c8:	e1a00009 	mov	r0, r9
a3e044cc:	ebfff8fb 	bl	a3e028c0 <PrintEthAddr>
a3e044d0:	e1a0000a 	mov	r0, sl
a3e044d4:	ebfff385 	bl	a3e012f0 <printf>
a3e044d8:	ebfff6f5 	bl	a3e020b4 <eth_init>
a3e044dc:	e3a00001 	mov	r0, #1	; 0x1
a3e044e0:	ea000001 	b	a3e044ec <DoMacWrite+0x248>
a3e044e4:	a3e06d40 	mvnge	r6, #4096	; 0x1000
a3e044e8:	a3e06d5c 	mvnge	r6, #5888	; 0x1700
a3e044ec:	e28dd020 	add	sp, sp, #32	; 0x20
a3e044f0:	e8bd87f0 	ldmia	sp!, {r4, r5, r6, r7, r8, r9, sl, pc}

a3e044f4 <DoSetIP>:
a3e044f4:	e92d47f0 	stmdb	sp!, {r4, r5, r6, r7, r8, r9, sl, lr}
a3e044f8:	e3a0c000 	mov	ip, #0	; 0x0
a3e044fc:	e3500003 	cmp	r0, #3	; 0x3
a3e04500:	e24dd020 	sub	sp, sp, #32	; 0x20
a3e04504:	1a00008a 	bne	a3e04734 <DoSetIP+0x240>
a3e04508:	e1a0000c 	mov	r0, ip
a3e0450c:	e28d501c 	add	r5, sp, #28	; 0x1c
a3e04510:	e28d4018 	add	r4, sp, #24	; 0x18
a3e04514:	e28d3004 	add	r3, sp, #4	; 0x4
a3e04518:	e1a0e003 	mov	lr, r3
a3e0451c:	e3a02702 	mov	r2, #524288	; 0x80000
a3e04520:	e58d3000 	str	r3, [sp]
a3e04524:	e7d03002 	ldrb	r3, [r0, r2]
a3e04528:	e7ce3000 	strb	r3, [lr, r0]
a3e0452c:	e2800001 	add	r0, r0, #1	; 0x1
a3e04530:	e350000b 	cmp	r0, #11	; 0xb
a3e04534:	dafffffa 	ble	a3e04524 <DoSetIP+0x30>
a3e04538:	e3a00000 	mov	r0, #0	; 0x0
a3e0453c:	e1a0e005 	mov	lr, r5
a3e04540:	e1a03000 	mov	r3, r0
a3e04544:	e1a02004 	mov	r2, r4
a3e04548:	e7ce3000 	strb	r3, [lr, r0]
a3e0454c:	e7c23000 	strb	r3, [r2, r0]
a3e04550:	e2800001 	add	r0, r0, #1	; 0x1
a3e04554:	e3500003 	cmp	r0, #3	; 0x3
a3e04558:	dafffffa 	ble	a3e04548 <DoSetIP+0x54>
a3e0455c:	e3a00000 	mov	r0, #0	; 0x0
a3e04560:	e1a0e004 	mov	lr, r4
a3e04564:	ea000008 	b	a3e0458c <DoSetIP+0x98>
a3e04568:	e7de300c 	ldrb	r3, [lr, ip]
a3e0456c:	e0833103 	add	r3, r3, r3, lsl #2
a3e04570:	e1a03083 	mov	r3, r3, lsl #1
a3e04574:	e7ce300c 	strb	r3, [lr, ip]
a3e04578:	e7d22000 	ldrb	r2, [r2, r0]
a3e0457c:	e28330d0 	add	r3, r3, #208	; 0xd0
a3e04580:	e0822003 	add	r2, r2, r3
a3e04584:	e7ce200c 	strb	r2, [lr, ip]
a3e04588:	e2800001 	add	r0, r0, #1	; 0x1
a3e0458c:	e350000f 	cmp	r0, #15	; 0xf
a3e04590:	ca000006 	bgt	a3e045b0 <DoSetIP+0xbc>
a3e04594:	e5912004 	ldr	r2, [r1, #4]
a3e04598:	e7d23000 	ldrb	r3, [r2, r0]
a3e0459c:	e353002e 	cmp	r3, #46	; 0x2e
a3e045a0:	028cc001 	addeq	ip, ip, #1	; 0x1
a3e045a4:	0afffff7 	beq	a3e04588 <DoSetIP+0x94>
a3e045a8:	e3530000 	cmp	r3, #0	; 0x0
a3e045ac:	1affffed 	bne	a3e04568 <DoSetIP+0x74>
a3e045b0:	e3a0c000 	mov	ip, #0	; 0x0
a3e045b4:	e1a0000c 	mov	r0, ip
a3e045b8:	e1a0e005 	mov	lr, r5
a3e045bc:	ea000008 	b	a3e045e4 <DoSetIP+0xf0>
a3e045c0:	e7de300c 	ldrb	r3, [lr, ip]
a3e045c4:	e0833103 	add	r3, r3, r3, lsl #2
a3e045c8:	e1a03083 	mov	r3, r3, lsl #1
a3e045cc:	e7ce300c 	strb	r3, [lr, ip]
a3e045d0:	e7d22000 	ldrb	r2, [r2, r0]
a3e045d4:	e28330d0 	add	r3, r3, #208	; 0xd0
a3e045d8:	e0822003 	add	r2, r2, r3
a3e045dc:	e7ce200c 	strb	r2, [lr, ip]
a3e045e0:	e2800001 	add	r0, r0, #1	; 0x1
a3e045e4:	e350000f 	cmp	r0, #15	; 0xf
a3e045e8:	ca000006 	bgt	a3e04608 <DoSetIP+0x114>
a3e045ec:	e5912008 	ldr	r2, [r1, #8]
a3e045f0:	e7d23000 	ldrb	r3, [r2, r0]
a3e045f4:	e353002e 	cmp	r3, #46	; 0x2e
a3e045f8:	028cc001 	addeq	ip, ip, #1	; 0x1
a3e045fc:	0afffff7 	beq	a3e045e0 <DoSetIP+0xec>
a3e04600:	e3530000 	cmp	r3, #0	; 0x0
a3e04604:	1affffed 	bne	a3e045c0 <DoSetIP+0xcc>
a3e04608:	e5dd9019 	ldrb	r9, [sp, #25]
a3e0460c:	e5dda018 	ldrb	sl, [sp, #24]
a3e04610:	e5dd701a 	ldrb	r7, [sp, #26]
a3e04614:	e5dd801b 	ldrb	r8, [sp, #27]
a3e04618:	e5dd601d 	ldrb	r6, [sp, #29]
a3e0461c:	e5dd501c 	ldrb	r5, [sp, #28]
a3e04620:	e5dde01e 	ldrb	lr, [sp, #30]
a3e04624:	e5dd401f 	ldrb	r4, [sp, #31]
a3e04628:	e1a0c809 	mov	ip, r9, lsl #16
a3e0462c:	e18ccc0a 	orr	ip, ip, sl, lsl #24
a3e04630:	e18cc407 	orr	ip, ip, r7, lsl #8
a3e04634:	e18cc008 	orr	ip, ip, r8
a3e04638:	e20c3cff 	and	r3, ip, #65280	; 0xff00
a3e0463c:	e1a03403 	mov	r3, r3, lsl #8
a3e04640:	e1833c0c 	orr	r3, r3, ip, lsl #24
a3e04644:	e20c28ff 	and	r2, ip, #16711680	; 0xff0000
a3e04648:	e1833422 	orr	r3, r3, r2, lsr #8
a3e0464c:	e183cc2c 	orr	ip, r3, ip, lsr #24
a3e04650:	e1a01806 	mov	r1, r6, lsl #16
a3e04654:	e1811c05 	orr	r1, r1, r5, lsl #24
a3e04658:	e181140e 	orr	r1, r1, lr, lsl #8
a3e0465c:	e1811004 	orr	r1, r1, r4
a3e04660:	e2013cff 	and	r3, r1, #65280	; 0xff00
a3e04664:	e1a03403 	mov	r3, r3, lsl #8
a3e04668:	e1833c01 	orr	r3, r3, r1, lsl #24
a3e0466c:	e20128ff 	and	r2, r1, #16711680	; 0xff0000
a3e04670:	e1833422 	orr	r3, r3, r2, lsr #8
a3e04674:	e1831c21 	orr	r1, r3, r1, lsr #24
a3e04678:	e59f3090 	ldr	r3, [pc, #90]	; a3e04710 <DoSetIP+0x21c>
a3e0467c:	e5cda010 	strb	sl, [sp, #16]
a3e04680:	e5cd9011 	strb	r9, [sp, #17]
a3e04684:	e5cd7012 	strb	r7, [sp, #18]
a3e04688:	e5cd8013 	strb	r8, [sp, #19]
a3e0468c:	e583c000 	str	ip, [r3]
a3e04690:	e59f307c 	ldr	r3, [pc, #7c]	; a3e04714 <DoSetIP+0x220>
a3e04694:	e3a00702 	mov	r0, #524288	; 0x80000
a3e04698:	e5cd5014 	strb	r5, [sp, #20]
a3e0469c:	e5cd6015 	strb	r6, [sp, #21]
a3e046a0:	e5cde016 	strb	lr, [sp, #22]
a3e046a4:	e5cd4017 	strb	r4, [sp, #23]
a3e046a8:	e5831000 	str	r1, [r3]
a3e046ac:	ebfffb7e 	bl	a3e034ac <EraseBlock>
a3e046b0:	e2504000 	subs	r4, r0, #0	; 0x0
a3e046b4:	059f005c 	ldreq	r0, [pc, #5c]	; a3e04718 <DoSetIP+0x224>
a3e046b8:	0a00001c 	beq	a3e04730 <DoSetIP+0x23c>
a3e046bc:	e59d1000 	ldr	r1, [sp]
a3e046c0:	e3a00702 	mov	r0, #524288	; 0x80000
a3e046c4:	ebfffba1 	bl	a3e03550 <FlashWrite>
a3e046c8:	e2504000 	subs	r4, r0, #0	; 0x0
a3e046cc:	0a000016 	beq	a3e0472c <DoSetIP+0x238>
a3e046d0:	e59f0044 	ldr	r0, [pc, #44]	; a3e0471c <DoSetIP+0x228>
a3e046d4:	ebfff305 	bl	a3e012f0 <printf>
a3e046d8:	e59f3030 	ldr	r3, [pc, #30]	; a3e04710 <DoSetIP+0x21c>
a3e046dc:	e5930000 	ldr	r0, [r3]
a3e046e0:	ebfff861 	bl	a3e0286c <PrintIPAddr>
a3e046e4:	e59f0034 	ldr	r0, [pc, #34]	; a3e04720 <DoSetIP+0x22c>
a3e046e8:	ebfff300 	bl	a3e012f0 <printf>
a3e046ec:	e59f0030 	ldr	r0, [pc, #30]	; a3e04724 <DoSetIP+0x230>
a3e046f0:	ebfff2fe 	bl	a3e012f0 <printf>
a3e046f4:	e59f3018 	ldr	r3, [pc, #18]	; a3e04714 <DoSetIP+0x220>
a3e046f8:	e5930000 	ldr	r0, [r3]
a3e046fc:	ebfff85a 	bl	a3e0286c <PrintIPAddr>
a3e04700:	e59f0020 	ldr	r0, [pc, #20]	; a3e04728 <DoSetIP+0x234>
a3e04704:	ebfff2f9 	bl	a3e012f0 <printf>
a3e04708:	e3a00001 	mov	r0, #1	; 0x1
a3e0470c:	ea000009 	b	a3e04738 <DoSetIP+0x244>
a3e04710:	a3e077a8 	mvnge	r7, #44040192	; 0x2a00000
a3e04714:	a3e077ac 	mvnge	r7, #45088768	; 0x2b00000
a3e04718:	a3e06d20 	mvnge	r6, #2048	; 0x800
a3e0471c:	a3e06d78 	mvnge	r6, #7680	; 0x1e00
a3e04720:	a3e06ce0 	mvnge	r6, #57344	; 0xe000
a3e04724:	a3e06d98 	mvnge	r6, #9728	; 0x2600
a3e04728:	a3e06db8 	mvnge	r6, #11776	; 0x2e00
a3e0472c:	e59f0008 	ldr	r0, [pc, #8]	; a3e0473c <DoSetIP+0x248>
a3e04730:	ebfff2ee 	bl	a3e012f0 <printf>
a3e04734:	e3a00000 	mov	r0, #0	; 0x0
a3e04738:	ea000000 	b	a3e04740 <DoSetIP+0x24c>
a3e0473c:	a3e06d30 	mvnge	r6, #3072	; 0xc00
a3e04740:	e28dd020 	add	sp, sp, #32	; 0x20
a3e04744:	e8bd87f0 	ldmia	sp!, {r4, r5, r6, r7, r8, r9, sl, pc}

a3e04748 <DoStatus>:
a3e04748:	e92d4070 	stmdb	sp!, {r4, r5, r6, lr}
a3e0474c:	e59f0238 	ldr	r0, [pc, #238]	; a3e0498c <DoStatus+0x244>
a3e04750:	e24dd020 	sub	sp, sp, #32	; 0x20
a3e04754:	ebfff2e5 	bl	a3e012f0 <printf>
a3e04758:	e3a01000 	mov	r1, #0	; 0x0
a3e0475c:	e59f022c 	ldr	r0, [pc, #22c]	; a3e04990 <DoStatus+0x248>
a3e04760:	e59f222c 	ldr	r2, [pc, #22c]	; a3e04994 <DoStatus+0x24c>
a3e04764:	e3a03903 	mov	r3, #49152	; 0xc000
a3e04768:	ebfff2e0 	bl	a3e012f0 <printf>
a3e0476c:	e3a01703 	mov	r1, #786432	; 0xc0000
a3e04770:	e59f0220 	ldr	r0, [pc, #220]	; a3e04998 <DoStatus+0x250>
a3e04774:	e59f2220 	ldr	r2, [pc, #220]	; a3e0499c <DoStatus+0x254>
a3e04778:	e3a03811 	mov	r3, #1114112	; 0x110000
a3e0477c:	ebfff2db 	bl	a3e012f0 <printf>
a3e04780:	e3a01602 	mov	r1, #2097152	; 0x200000
a3e04784:	e59f0214 	ldr	r0, [pc, #214]	; a3e049a0 <DoStatus+0x258>
a3e04788:	e59f2214 	ldr	r2, [pc, #214]	; a3e049a4 <DoStatus+0x25c>
a3e0478c:	e3a03606 	mov	r3, #6291456	; 0x600000
a3e04790:	ebfff2d6 	bl	a3e012f0 <printf>
a3e04794:	e3a01609 	mov	r1, #9437184	; 0x900000
a3e04798:	e59f0208 	ldr	r0, [pc, #208]	; a3e049a8 <DoStatus+0x260>
a3e0479c:	e59f2208 	ldr	r2, [pc, #208]	; a3e049ac <DoStatus+0x264>
a3e047a0:	e3a03617 	mov	r3, #24117248	; 0x1700000
a3e047a4:	ebfff2d1 	bl	a3e012f0 <printf>
a3e047a8:	e59f0200 	ldr	r0, [pc, #200]	; a3e049b0 <DoStatus+0x268>
a3e047ac:	ebfff2cf 	bl	a3e012f0 <printf>
a3e047b0:	e59f01fc 	ldr	r0, [pc, #1fc]	; a3e049b4 <DoStatus+0x26c>
a3e047b4:	ebfff2cd 	bl	a3e012f0 <printf>
a3e047b8:	e59f31f8 	ldr	r3, [pc, #1f8]	; a3e049b8 <DoStatus+0x270>
a3e047bc:	e59f41f8 	ldr	r4, [pc, #1f8]	; a3e049bc <DoStatus+0x274>
a3e047c0:	e5930000 	ldr	r0, [r3]
a3e047c4:	e1a05004 	mov	r5, r4
a3e047c8:	ebfff83c 	bl	a3e028c0 <PrintEthAddr>
a3e047cc:	e1a00004 	mov	r0, r4
a3e047d0:	ebfff2c6 	bl	a3e012f0 <printf>
a3e047d4:	e3a02000 	mov	r2, #0	; 0x0
a3e047d8:	e28d4014 	add	r4, sp, #20	; 0x14
a3e047dc:	e28d601a 	add	r6, sp, #26	; 0x1a
a3e047e0:	e1a0100d 	mov	r1, sp
a3e047e4:	e3a00702 	mov	r0, #524288	; 0x80000
a3e047e8:	e7d23000 	ldrb	r3, [r2, r0]
a3e047ec:	e7c13002 	strb	r3, [r1, r2]
a3e047f0:	e2822001 	add	r2, r2, #1	; 0x1
a3e047f4:	e3520013 	cmp	r2, #19	; 0x13
a3e047f8:	dafffffa 	ble	a3e047e8 <DoStatus+0xa0>
a3e047fc:	e59f01bc 	ldr	r0, [pc, #1bc]	; a3e049c0 <DoStatus+0x278>
a3e04800:	ebfff2ba 	bl	a3e012f0 <printf>
a3e04804:	e59f31b8 	ldr	r3, [pc, #1b8]	; a3e049c4 <DoStatus+0x27c>
a3e04808:	e5930000 	ldr	r0, [r3]
a3e0480c:	ebfff816 	bl	a3e0286c <PrintIPAddr>
a3e04810:	e1a00005 	mov	r0, r5
a3e04814:	ebfff2b5 	bl	a3e012f0 <printf>
a3e04818:	e59f01a8 	ldr	r0, [pc, #1a8]	; a3e049c8 <DoStatus+0x280>
a3e0481c:	ebfff2b3 	bl	a3e012f0 <printf>
a3e04820:	e59f01a4 	ldr	r0, [pc, #1a4]	; a3e049cc <DoStatus+0x284>
a3e04824:	ebfff825 	bl	a3e028c0 <PrintEthAddr>
a3e04828:	e1a00005 	mov	r0, r5
a3e0482c:	ebfff2af 	bl	a3e012f0 <printf>
a3e04830:	e59f0198 	ldr	r0, [pc, #198]	; a3e049d0 <DoStatus+0x288>
a3e04834:	ebfff2ad 	bl	a3e012f0 <printf>
a3e04838:	e59f3194 	ldr	r3, [pc, #194]	; a3e049d4 <DoStatus+0x28c>
a3e0483c:	e5930000 	ldr	r0, [r3]
a3e04840:	ebfff809 	bl	a3e0286c <PrintIPAddr>
a3e04844:	e1a00005 	mov	r0, r5
a3e04848:	ebfff2a8 	bl	a3e012f0 <printf>
a3e0484c:	e3a02000 	mov	r2, #0	; 0x0
a3e04850:	e1a01004 	mov	r1, r4
a3e04854:	e3a00702 	mov	r0, #524288	; 0x80000
a3e04858:	e7d23000 	ldrb	r3, [r2, r0]
a3e0485c:	e7c13002 	strb	r3, [r1, r2]
a3e04860:	e2822001 	add	r2, r2, #1	; 0x1
a3e04864:	e352000b 	cmp	r2, #11	; 0xb
a3e04868:	dafffffa 	ble	a3e04858 <DoStatus+0x110>
a3e0486c:	e59f0164 	ldr	r0, [pc, #164]	; a3e049d8 <DoStatus+0x290>
a3e04870:	ebfff29e 	bl	a3e012f0 <printf>
a3e04874:	e1a00004 	mov	r0, r4
a3e04878:	ebfff810 	bl	a3e028c0 <PrintEthAddr>
a3e0487c:	e1a00005 	mov	r0, r5
a3e04880:	ebfff29a 	bl	a3e012f0 <printf>
a3e04884:	e59f0150 	ldr	r0, [pc, #150]	; a3e049dc <DoStatus+0x294>
a3e04888:	ebfff298 	bl	a3e012f0 <printf>
a3e0488c:	e1a00006 	mov	r0, r6
a3e04890:	ebfff80a 	bl	a3e028c0 <PrintEthAddr>
a3e04894:	e1a00005 	mov	r0, r5
a3e04898:	ebfff294 	bl	a3e012f0 <printf>
a3e0489c:	e59f013c 	ldr	r0, [pc, #13c]	; a3e049e0 <DoStatus+0x298>
a3e048a0:	ebfff292 	bl	a3e012f0 <printf>
a3e048a4:	e3a01312 	mov	r1, #1207959552	; 0x48000000
a3e048a8:	e59f0134 	ldr	r0, [pc, #134]	; a3e049e4 <DoStatus+0x29c>
a3e048ac:	e5912000 	ldr	r2, [r1]
a3e048b0:	ebfff28e 	bl	a3e012f0 <printf>
a3e048b4:	e59f112c 	ldr	r1, [pc, #12c]	; a3e049e8 <DoStatus+0x2a0>
a3e048b8:	e59f012c 	ldr	r0, [pc, #12c]	; a3e049ec <DoStatus+0x2a4>
a3e048bc:	e5912000 	ldr	r2, [r1]
a3e048c0:	ebfff28a 	bl	a3e012f0 <printf>
a3e048c4:	e59f1124 	ldr	r1, [pc, #124]	; a3e049f0 <DoStatus+0x2a8>
a3e048c8:	e59f0124 	ldr	r0, [pc, #124]	; a3e049f4 <DoStatus+0x2ac>
a3e048cc:	e5912000 	ldr	r2, [r1]
a3e048d0:	ebfff286 	bl	a3e012f0 <printf>
a3e048d4:	e59f111c 	ldr	r1, [pc, #11c]	; a3e049f8 <DoStatus+0x2b0>
a3e048d8:	e59f011c 	ldr	r0, [pc, #11c]	; a3e049fc <DoStatus+0x2b4>
a3e048dc:	e5912000 	ldr	r2, [r1]
a3e048e0:	ebfff282 	bl	a3e012f0 <printf>
a3e048e4:	e59f1114 	ldr	r1, [pc, #114]	; a3e04a00 <DoStatus+0x2b8>
a3e048e8:	e59f0114 	ldr	r0, [pc, #114]	; a3e04a04 <DoStatus+0x2bc>
a3e048ec:	e5912000 	ldr	r2, [r1]
a3e048f0:	ebfff27e 	bl	a3e012f0 <printf>
a3e048f4:	e59f110c 	ldr	r1, [pc, #10c]	; a3e04a08 <DoStatus+0x2c0>
a3e048f8:	e59f010c 	ldr	r0, [pc, #10c]	; a3e04a0c <DoStatus+0x2c4>
a3e048fc:	e5912000 	ldr	r2, [r1]
a3e04900:	ebfff27a 	bl	a3e012f0 <printf>
a3e04904:	e59f1104 	ldr	r1, [pc, #104]	; a3e04a10 <DoStatus+0x2c8>
a3e04908:	e59f0104 	ldr	r0, [pc, #104]	; a3e04a14 <DoStatus+0x2cc>
a3e0490c:	e5912000 	ldr	r2, [r1]
a3e04910:	ebfff276 	bl	a3e012f0 <printf>
a3e04914:	e59f10fc 	ldr	r1, [pc, #fc]	; a3e04a18 <DoStatus+0x2d0>
a3e04918:	e59f00fc 	ldr	r0, [pc, #fc]	; a3e04a1c <DoStatus+0x2d4>
a3e0491c:	e5912000 	ldr	r2, [r1]
a3e04920:	ebfff272 	bl	a3e012f0 <printf>
a3e04924:	e59f10f4 	ldr	r1, [pc, #f4]	; a3e04a20 <DoStatus+0x2d8>
a3e04928:	e59f00f4 	ldr	r0, [pc, #f4]	; a3e04a24 <DoStatus+0x2dc>
a3e0492c:	e5912000 	ldr	r2, [r1]
a3e04930:	ebfff26e 	bl	a3e012f0 <printf>
a3e04934:	e59f10ec 	ldr	r1, [pc, #ec]	; a3e04a28 <DoStatus+0x2e0>
a3e04938:	e59f00ec 	ldr	r0, [pc, #ec]	; a3e04a2c <DoStatus+0x2e4>
a3e0493c:	e5912000 	ldr	r2, [r1]
a3e04940:	ebfff26a 	bl	a3e012f0 <printf>
a3e04944:	e59f10e4 	ldr	r1, [pc, #e4]	; a3e04a30 <DoStatus+0x2e8>
a3e04948:	e59f00e4 	ldr	r0, [pc, #e4]	; a3e04a34 <DoStatus+0x2ec>
a3e0494c:	e5912000 	ldr	r2, [r1]
a3e04950:	ebfff266 	bl	a3e012f0 <printf>
a3e04954:	e59f10dc 	ldr	r1, [pc, #dc]	; a3e04a38 <DoStatus+0x2f0>
a3e04958:	e59f00dc 	ldr	r0, [pc, #dc]	; a3e04a3c <DoStatus+0x2f4>
a3e0495c:	e5912000 	ldr	r2, [r1]
a3e04960:	ebfff262 	bl	a3e012f0 <printf>
a3e04964:	e59f10d4 	ldr	r1, [pc, #d4]	; a3e04a40 <DoStatus+0x2f8>
a3e04968:	e59f00d4 	ldr	r0, [pc, #d4]	; a3e04a44 <DoStatus+0x2fc>
a3e0496c:	e5912000 	ldr	r2, [r1]
a3e04970:	ebfff25e 	bl	a3e012f0 <printf>
a3e04974:	e59f10cc 	ldr	r1, [pc, #cc]	; a3e04a48 <DoStatus+0x300>
a3e04978:	e59f00cc 	ldr	r0, [pc, #cc]	; a3e04a4c <DoStatus+0x304>
a3e0497c:	e5912000 	ldr	r2, [r1]
a3e04980:	ebfff25a 	bl	a3e012f0 <printf>
a3e04984:	e3a00001 	mov	r0, #1	; 0x1
a3e04988:	ea000030 	b	a3e04a50 <DoStatus+0x308>
a3e0498c:	a3e06dbc 	mvnge	r6, #12032	; 0x2f00
a3e04990:	a3e06dd0 	mvnge	r6, #13312	; 0x3400
a3e04994:	a3d00000 	bicges	r0, r0, #0	; 0x0
a3e04998:	a3e06e10 	mvnge	r6, #256	; 0x100
a3e0499c:	a00c0000 	andge	r0, ip, r0
a3e049a0:	a3e06e50 	mvnge	r6, #1280	; 0x500
a3e049a4:	a0600000 	rsbge	r0, r0, r0
a3e049a8:	a3e06e90 	mvnge	r6, #2304	; 0x900
a3e049ac:	a1600000 	cmnge	r0, r0
a3e049b0:	a3e06ed0 	mvnge	r6, #3328	; 0xd00
a3e049b4:	a3e06ee8 	mvnge	r6, #3712	; 0xe80
a3e049b8:	a3e077dc 	mvnge	r7, #57671680	; 0x3700000
a3e049bc:	a3e06ce0 	mvnge	r6, #57344	; 0xe000
a3e049c0:	a3e06f0c 	mvnge	r6, #48	; 0x30
a3e049c4:	a3e077a8 	mvnge	r7, #44040192	; 0x2a00000
a3e049c8:	a3e06f2c 	mvnge	r6, #176	; 0xb0
a3e049cc:	a3e07790 	mvnge	r7, #37748736	; 0x2400000
a3e049d0:	a3e06f50 	mvnge	r6, #320	; 0x140
a3e049d4:	a3e077ac 	mvnge	r7, #45088768	; 0x2b00000
a3e049d8:	a3e06f70 	mvnge	r6, #448	; 0x1c0
a3e049dc:	a3e06f94 	mvnge	r6, #592	; 0x250
a3e049e0:	a3e06fb8 	mvnge	r6, #736	; 0x2e0
a3e049e4:	a3e06fd0 	mvnge	r6, #832	; 0x340
a3e049e8:	48000004 	stmmida	r0, {r2}
a3e049ec:	a3e07000 	mvnge	r7, #0	; 0x0
a3e049f0:	48000008 	stmmida	r0, {r3}
a3e049f4:	a3e07030 	mvnge	r7, #48	; 0x30
a3e049f8:	4800000c 	stmmida	r0, {r2, r3}
a3e049fc:	a3e07060 	mvnge	r7, #96	; 0x60
a3e04a00:	48000010 	stmmida	r0, {r4}
a3e04a04:	a3e07090 	mvnge	r7, #144	; 0x90
a3e04a08:	48000014 	stmmida	r0, {r2, r4}
a3e04a0c:	a3e070c0 	mvnge	r7, #192	; 0xc0
a3e04a10:	4800001c 	stmmida	r0, {r2, r3, r4}
a3e04a14:	a3e070f0 	mvnge	r7, #240	; 0xf0
a3e04a18:	48000028 	stmmida	r0, {r3, r5}
a3e04a1c:	a3e07120 	mvnge	r7, #8	; 0x8
a3e04a20:	4800002c 	stmmida	r0, {r2, r3, r5}
a3e04a24:	a3e07150 	mvnge	r7, #20	; 0x14
a3e04a28:	48000030 	stmmida	r0, {r4, r5}
a3e04a2c:	a3e07180 	mvnge	r7, #32	; 0x20
a3e04a30:	48000034 	stmmida	r0, {r2, r4, r5}
a3e04a34:	a3e071b0 	mvnge	r7, #44	; 0x2c
a3e04a38:	48000038 	stmmida	r0, {r3, r4, r5}
a3e04a3c:	a3e071e0 	mvnge	r7, #56	; 0x38
a3e04a40:	4800003c 	stmmida	r0, {r2, r3, r4, r5}
a3e04a44:	a3e07210 	mvnge	r7, #1	; 0x1
a3e04a48:	48000040 	stmmida	r0, {r6}
a3e04a4c:	a3e07240 	mvnge	r7, #4	; 0x4
a3e04a50:	e28dd020 	add	sp, sp, #32	; 0x20
a3e04a54:	e8bd8070 	ldmia	sp!, {r4, r5, r6, pc}

a3e04a58 <DoUpgrade>:
a3e04a58:	e92d47f0 	stmdb	sp!, {r4, r5, r6, r7, r8, r9, sl, lr}
a3e04a5c:	e1a05000 	mov	r5, r0
a3e04a60:	e1a08001 	mov	r8, r1
a3e04a64:	e3a07000 	mov	r7, #0	; 0x0
a3e04a68:	e24dd010 	sub	sp, sp, #16	; 0x10
a3e04a6c:	e58d7004 	str	r7, [sp, #4]
a3e04a70:	e58d7008 	str	r7, [sp, #8]
a3e04a74:	e58d700c 	str	r7, [sp, #12]
a3e04a78:	eb0000d1 	bl	a3e04dc4 <print_banner>
a3e04a7c:	e5983004 	ldr	r3, [r8, #4]
a3e04a80:	e3a09001 	mov	r9, #1	; 0x1
a3e04a84:	e5d32000 	ldrb	r2, [r3]
a3e04a88:	e3c660ff 	bic	r6, r6, #255	; 0xff
a3e04a8c:	e352002d 	cmp	r2, #45	; 0x2d
a3e04a90:	1a000037 	bne	a3e04b74 <DoUpgrade+0x11c>
a3e04a94:	e1a04009 	mov	r4, r9
a3e04a98:	e3a07000 	mov	r7, #0	; 0x0
a3e04a9c:	e288a004 	add	sl, r8, #4	; 0x4
a3e04aa0:	e2455001 	sub	r5, r5, #1	; 0x1
a3e04aa4:	ea000028 	b	a3e04b4c <DoUpgrade+0xf4>
a3e04aa8:	e5982004 	ldr	r2, [r8, #4]
a3e04aac:	e0872002 	add	r2, r7, r2
a3e04ab0:	e5d23001 	ldrb	r3, [r2, #1]
a3e04ab4:	e2433061 	sub	r3, r3, #97	; 0x61
a3e04ab8:	e3530014 	cmp	r3, #20	; 0x14
a3e04abc:	979ff103 	ldrls	pc, [pc, r3, lsl #2]
a3e04ac0:	ea00001c 	b	a3e04b38 <DoUpgrade+0xe0>
a3e04ac4:	a3e04b28 	mvnge	r4, #40960	; 0xa000
a3e04ac8:	a3e04b38 	mvnge	r4, #57344	; 0xe000
a3e04acc:	a3e04b38 	mvnge	r4, #57344	; 0xe000
a3e04ad0:	a3e04b38 	mvnge	r4, #57344	; 0xe000
a3e04ad4:	a3e04b38 	mvnge	r4, #57344	; 0xe000
a3e04ad8:	a3e04b38 	mvnge	r4, #57344	; 0xe000
a3e04adc:	a3e04b38 	mvnge	r4, #57344	; 0xe000
a3e04ae0:	a3e04b38 	mvnge	r4, #57344	; 0xe000
a3e04ae4:	a3e04b38 	mvnge	r4, #57344	; 0xe000
a3e04ae8:	a3e04b38 	mvnge	r4, #57344	; 0xe000
a3e04aec:	a3e04b18 	mvnge	r4, #24576	; 0x6000
a3e04af0:	a3e04b38 	mvnge	r4, #57344	; 0xe000
a3e04af4:	a3e04b38 	mvnge	r4, #57344	; 0xe000
a3e04af8:	a3e04b38 	mvnge	r4, #57344	; 0xe000
a3e04afc:	a3e04b38 	mvnge	r4, #57344	; 0xe000
a3e04b00:	a3e04b38 	mvnge	r4, #57344	; 0xe000
a3e04b04:	a3e04b38 	mvnge	r4, #57344	; 0xe000
a3e04b08:	a3e04b20 	mvnge	r4, #32768	; 0x8000
a3e04b0c:	a3e04b38 	mvnge	r4, #57344	; 0xe000
a3e04b10:	a3e04b38 	mvnge	r4, #57344	; 0xe000
a3e04b14:	a3e04b30 	mvnge	r4, #49152	; 0xc000
a3e04b18:	e58d4004 	str	r4, [sp, #4]
a3e04b1c:	ea000009 	b	a3e04b48 <DoUpgrade+0xf0>
a3e04b20:	e58d4008 	str	r4, [sp, #8]
a3e04b24:	ea000007 	b	a3e04b48 <DoUpgrade+0xf0>
a3e04b28:	e58d4004 	str	r4, [sp, #4]
a3e04b2c:	e58d4008 	str	r4, [sp, #8]
a3e04b30:	e58d400c 	str	r4, [sp, #12]
a3e04b34:	ea000003 	b	a3e04b48 <DoUpgrade+0xf0>
a3e04b38:	e59f0240 	ldr	r0, [pc, #240]	; a3e04d80 <DoUpgrade+0x328>
a3e04b3c:	e5981004 	ldr	r1, [r8, #4]
a3e04b40:	e2877064 	add	r7, r7, #100	; 0x64
a3e04b44:	ebfff1e9 	bl	a3e012f0 <printf>
a3e04b48:	e2877001 	add	r7, r7, #1	; 0x1
a3e04b4c:	e5980004 	ldr	r0, [r8, #4]
a3e04b50:	ebffeffd 	bl	a3e00b4c <StrLen>
a3e04b54:	e2400001 	sub	r0, r0, #1	; 0x1
a3e04b58:	e1570000 	cmp	r7, r0
a3e04b5c:	baffffd1 	blt	a3e04aa8 <DoUpgrade+0x50>
a3e04b60:	e1a0800a 	mov	r8, sl
a3e04b64:	e5983004 	ldr	r3, [r8, #4]
a3e04b68:	e5d32000 	ldrb	r2, [r3]
a3e04b6c:	e352002d 	cmp	r2, #45	; 0x2d
a3e04b70:	0affffc8 	beq	a3e04a98 <DoUpgrade+0x40>
a3e04b74:	e3570064 	cmp	r7, #100	; 0x64
a3e04b78:	d3a03000 	movle	r3, #0	; 0x0
a3e04b7c:	c3a03001 	movgt	r3, #1	; 0x1
a3e04b80:	e3550002 	cmp	r5, #2	; 0x2
a3e04b84:	d3a03001 	movle	r3, #1	; 0x1
a3e04b88:	e3530000 	cmp	r3, #0	; 0x0
a3e04b8c:	0a000002 	beq	a3e04b9c <DoUpgrade+0x144>
a3e04b90:	eb0000ac 	bl	a3e04e48 <print_usage>
a3e04b94:	e3a00000 	mov	r0, #0	; 0x0
a3e04b98:	ea000085 	b	a3e04db4 <DoUpgrade+0x35c>
a3e04b9c:	e59f01e0 	ldr	r0, [pc, #1e0]	; a3e04d84 <DoUpgrade+0x32c>
a3e04ba0:	e59d1004 	ldr	r1, [sp, #4]
a3e04ba4:	ebfff1d1 	bl	a3e012f0 <printf>
a3e04ba8:	e59f01d8 	ldr	r0, [pc, #1d8]	; a3e04d88 <DoUpgrade+0x330>
a3e04bac:	e59d1008 	ldr	r1, [sp, #8]
a3e04bb0:	ebfff1ce 	bl	a3e012f0 <printf>
a3e04bb4:	e59f01d0 	ldr	r0, [pc, #1d0]	; a3e04d8c <DoUpgrade+0x334>
a3e04bb8:	e59d100c 	ldr	r1, [sp, #12]
a3e04bbc:	ebfff1cb 	bl	a3e012f0 <printf>
a3e04bc0:	e59f01c8 	ldr	r0, [pc, #1c8]	; a3e04d90 <DoUpgrade+0x338>
a3e04bc4:	ebfff1c9 	bl	a3e012f0 <printf>
a3e04bc8:	e3590000 	cmp	r9, #0	; 0x0
a3e04bcc:	e3864001 	orr	r4, r6, #1	; 0x1
a3e04bd0:	0a000005 	beq	a3e04bec <DoUpgrade+0x194>
a3e04bd4:	e28d0003 	add	r0, sp, #3	; 0x3
a3e04bd8:	ebffef08 	bl	a3e00800 <GetChar>
a3e04bdc:	e3500000 	cmp	r0, #0	; 0x0
a3e04be0:	13a09000 	movne	r9, #0	; 0x0
a3e04be4:	e3590000 	cmp	r9, #0	; 0x0
a3e04be8:	1afffff9 	bne	a3e04bd4 <DoUpgrade+0x17c>
a3e04bec:	e59f11a0 	ldr	r1, [pc, #1a0]	; a3e04d94 <DoUpgrade+0x33c>
a3e04bf0:	e3a00000 	mov	r0, #0	; 0x0
a3e04bf4:	eb00015a 	bl	a3e05164 <Cmd_Mac>
a3e04bf8:	e3a00001 	mov	r0, #1	; 0x1
a3e04bfc:	e3a01000 	mov	r1, #0	; 0x0
a3e04c00:	ebfff85c 	bl	a3e02d78 <DoBootp>
a3e04c04:	e59f318c 	ldr	r3, [pc, #18c]	; a3e04d98 <DoUpgrade+0x340>
a3e04c08:	e5932000 	ldr	r2, [r3]
a3e04c0c:	e3520000 	cmp	r2, #0	; 0x0
a3e04c10:	11a06004 	movne	r6, r4
a3e04c14:	e2164001 	ands	r4, r6, #1	; 0x1
a3e04c18:	13e04000 	mvnne	r4, #0	; 0x0
a3e04c1c:	e3540000 	cmp	r4, #0	; 0x0
a3e04c20:	0a000051 	beq	a3e04d6c <DoUpgrade+0x314>
a3e04c24:	e59d3004 	ldr	r3, [sp, #4]
a3e04c28:	e3530000 	cmp	r3, #0	; 0x0
a3e04c2c:	0a000006 	beq	a3e04c4c <DoUpgrade+0x1f4>
a3e04c30:	e3a00001 	mov	r0, #1	; 0x1
a3e04c34:	eb0000fc 	bl	a3e0502c <Cmd_Kernel>
a3e04c38:	e2000001 	and	r0, r0, #1	; 0x1
a3e04c3c:	e3c63002 	bic	r3, r6, #2	; 0x2
a3e04c40:	e1836080 	orr	r6, r3, r0, lsl #1
a3e04c44:	e3a00601 	mov	r0, #1048576	; 0x100000
a3e04c48:	ebffef41 	bl	a3e00954 <user_wait>
a3e04c4c:	e59d3008 	ldr	r3, [sp, #8]
a3e04c50:	e3530000 	cmp	r3, #0	; 0x0
a3e04c54:	0a000006 	beq	a3e04c74 <DoUpgrade+0x21c>
a3e04c58:	e3a00001 	mov	r0, #1	; 0x1
a3e04c5c:	eb00010c 	bl	a3e05094 <Cmd_Ramdisk>
a3e04c60:	e2000001 	and	r0, r0, #1	; 0x1
a3e04c64:	e3c63004 	bic	r3, r6, #4	; 0x4
a3e04c68:	e1836100 	orr	r6, r3, r0, lsl #2
a3e04c6c:	e3a00601 	mov	r0, #1048576	; 0x100000
a3e04c70:	ebffef37 	bl	a3e00954 <user_wait>
a3e04c74:	e59d300c 	ldr	r3, [sp, #12]
a3e04c78:	e3530000 	cmp	r3, #0	; 0x0
a3e04c7c:	0a000006 	beq	a3e04c9c <DoUpgrade+0x244>
a3e04c80:	e3a00001 	mov	r0, #1	; 0x1
a3e04c84:	eb00011c 	bl	a3e050fc <Cmd_Usr>
a3e04c88:	e2000001 	and	r0, r0, #1	; 0x1
a3e04c8c:	e3c63008 	bic	r3, r6, #8	; 0x8
a3e04c90:	e1836180 	orr	r6, r3, r0, lsl #3
a3e04c94:	e3a00601 	mov	r0, #1048576	; 0x100000
a3e04c98:	ebffef2d 	bl	a3e00954 <user_wait>
a3e04c9c:	e59d3004 	ldr	r3, [sp, #4]
a3e04ca0:	e3530000 	cmp	r3, #0	; 0x0
a3e04ca4:	0a000008 	beq	a3e04ccc <DoUpgrade+0x274>
a3e04ca8:	e3160002 	tst	r6, #2	; 0x2
a3e04cac:	0a000006 	beq	a3e04ccc <DoUpgrade+0x274>
a3e04cb0:	e3a00000 	mov	r0, #0	; 0x0
a3e04cb4:	eb0000dc 	bl	a3e0502c <Cmd_Kernel>
a3e04cb8:	e2000001 	and	r0, r0, #1	; 0x1
a3e04cbc:	e3c63010 	bic	r3, r6, #16	; 0x10
a3e04cc0:	e1836200 	orr	r6, r3, r0, lsl #4
a3e04cc4:	e3a00601 	mov	r0, #1048576	; 0x100000
a3e04cc8:	ebffef21 	bl	a3e00954 <user_wait>
a3e04ccc:	e59d3008 	ldr	r3, [sp, #8]
a3e04cd0:	e3530000 	cmp	r3, #0	; 0x0
a3e04cd4:	0a000008 	beq	a3e04cfc <DoUpgrade+0x2a4>
a3e04cd8:	e3160004 	tst	r6, #4	; 0x4
a3e04cdc:	0a000006 	beq	a3e04cfc <DoUpgrade+0x2a4>
a3e04ce0:	e3a00000 	mov	r0, #0	; 0x0
a3e04ce4:	eb0000ea 	bl	a3e05094 <Cmd_Ramdisk>
a3e04ce8:	e2000001 	and	r0, r0, #1	; 0x1
a3e04cec:	e3c63020 	bic	r3, r6, #32	; 0x20
a3e04cf0:	e1836280 	orr	r6, r3, r0, lsl #5
a3e04cf4:	e3a00601 	mov	r0, #1048576	; 0x100000
a3e04cf8:	ebffef15 	bl	a3e00954 <user_wait>
a3e04cfc:	e59d300c 	ldr	r3, [sp, #12]
a3e04d00:	e3530000 	cmp	r3, #0	; 0x0
a3e04d04:	0a000008 	beq	a3e04d2c <DoUpgrade+0x2d4>
a3e04d08:	e3160008 	tst	r6, #8	; 0x8
a3e04d0c:	0a000006 	beq	a3e04d2c <DoUpgrade+0x2d4>
a3e04d10:	e3a00000 	mov	r0, #0	; 0x0
a3e04d14:	eb0000f8 	bl	a3e050fc <Cmd_Usr>
a3e04d18:	e2000001 	and	r0, r0, #1	; 0x1
a3e04d1c:	e3c63040 	bic	r3, r6, #64	; 0x40
a3e04d20:	e1836300 	orr	r6, r3, r0, lsl #6
a3e04d24:	e3a00601 	mov	r0, #1048576	; 0x100000
a3e04d28:	ebffef09 	bl	a3e00954 <user_wait>
a3e04d2c:	e5981004 	ldr	r1, [r8, #4]
a3e04d30:	e3a00000 	mov	r0, #0	; 0x0
a3e04d34:	eb00010a 	bl	a3e05164 <Cmd_Mac>
a3e04d38:	e2000001 	and	r0, r0, #1	; 0x1
a3e04d3c:	e3c63080 	bic	r3, r6, #128	; 0x80
a3e04d40:	e1836380 	orr	r6, r3, r0, lsl #7
a3e04d44:	e5981008 	ldr	r1, [r8, #8]
a3e04d48:	e3a00001 	mov	r0, #1	; 0x1
a3e04d4c:	eb000104 	bl	a3e05164 <Cmd_Mac>
a3e04d50:	e2000001 	and	r0, r0, #1	; 0x1
a3e04d54:	e3c63080 	bic	r3, r6, #128	; 0x80
a3e04d58:	e1836380 	orr	r6, r3, r0, lsl #7
a3e04d5c:	e2504000 	subs	r4, r0, #0	; 0x0
a3e04d60:	13e04000 	mvnne	r4, #0	; 0x0
a3e04d64:	e3540000 	cmp	r4, #0	; 0x0
a3e04d68:	1a00000b 	bne	a3e04d9c <DoUpgrade+0x344>
a3e04d6c:	e1a00006 	mov	r0, r6
a3e04d70:	eb000059 	bl	a3e04edc <print_status>
a3e04d74:	eb000028 	bl	a3e04e1c <print_ncomplete>
a3e04d78:	e3a00000 	mov	r0, #0	; 0x0
a3e04d7c:	ea00000c 	b	a3e04db4 <DoUpgrade+0x35c>
a3e04d80:	a3e07270 	mvnge	r7, #7	; 0x7
a3e04d84:	a3e07284 	mvnge	r7, #1073741832	; 0x40000008
a3e04d88:	a3e072a4 	mvnge	r7, #1073741834	; 0x4000000a
a3e04d8c:	a3e072b8 	mvnge	r7, #-2147483637	; 0x8000000b
a3e04d90:	a3e072cc 	mvnge	r7, #-1073741812	; 0xc000000c
a3e04d94:	a3e072e8 	mvnge	r7, #-2147483634	; 0x8000000e
a3e04d98:	a3e077ac 	mvnge	r7, #45088768	; 0x2b00000
a3e04d9c:	e1a00006 	mov	r0, r6
a3e04da0:	eb00004d 	bl	a3e04edc <print_status>
a3e04da4:	eb000011 	bl	a3e04df0 <print_complete>
a3e04da8:	e59f0008 	ldr	r0, [pc, #8]	; a3e04db8 <DoUpgrade+0x360>
a3e04dac:	ebfff14f 	bl	a3e012f0 <printf>
a3e04db0:	e3a00001 	mov	r0, #1	; 0x1
a3e04db4:	ea000000 	b	a3e04dbc <DoUpgrade+0x364>
a3e04db8:	a3e072f0 	mvnge	r7, #15	; 0xf
a3e04dbc:	e28dd010 	add	sp, sp, #16	; 0x10
a3e04dc0:	e8bd87f0 	ldmia	sp!, {r4, r5, r6, r7, r8, r9, sl, pc}

a3e04dc4 <print_banner>:
a3e04dc4:	e92d4010 	stmdb	sp!, {r4, lr}
a3e04dc8:	e59f4018 	ldr	r4, [pc, #18]	; a3e04de8 <print_banner+0x24>
a3e04dcc:	e1a00004 	mov	r0, r4
a3e04dd0:	ebfff146 	bl	a3e012f0 <printf>
a3e04dd4:	e59f0010 	ldr	r0, [pc, #10]	; a3e04dec <print_banner+0x28>
a3e04dd8:	ebfff144 	bl	a3e012f0 <printf>
a3e04ddc:	e1a00004 	mov	r0, r4
a3e04de0:	e8bd4010 	ldmia	sp!, {r4, lr}
a3e04de4:	eafff141 	b	a3e012f0 <printf>
a3e04de8:	a3e0730c 	mvnge	r7, #805306368	; 0x30000000
a3e04dec:	a3e07330 	mvnge	r7, #-1073741824	; 0xc0000000

a3e04df0 <print_complete>:
a3e04df0:	e92d4010 	stmdb	sp!, {r4, lr}
a3e04df4:	e59f4018 	ldr	r4, [pc, #18]	; a3e04e14 <print_complete+0x24>
a3e04df8:	e1a00004 	mov	r0, r4
a3e04dfc:	ebfff13b 	bl	a3e012f0 <printf>
a3e04e00:	e59f0010 	ldr	r0, [pc, #10]	; a3e04e18 <print_complete+0x28>
a3e04e04:	ebfff139 	bl	a3e012f0 <printf>
a3e04e08:	e1a00004 	mov	r0, r4
a3e04e0c:	e8bd4010 	ldmia	sp!, {r4, lr}
a3e04e10:	eafff136 	b	a3e012f0 <printf>
a3e04e14:	a3e0730c 	mvnge	r7, #805306368	; 0x30000000
a3e04e18:	a3e07354 	mvnge	r7, #1342177281	; 0x50000001

a3e04e1c <print_ncomplete>:
a3e04e1c:	e92d4010 	stmdb	sp!, {r4, lr}
a3e04e20:	e59f4018 	ldr	r4, [pc, #18]	; a3e04e40 <print_ncomplete+0x24>
a3e04e24:	e1a00004 	mov	r0, r4
a3e04e28:	ebfff130 	bl	a3e012f0 <printf>
a3e04e2c:	e59f0010 	ldr	r0, [pc, #10]	; a3e04e44 <print_ncomplete+0x28>
a3e04e30:	ebfff12e 	bl	a3e012f0 <printf>
a3e04e34:	e1a00004 	mov	r0, r4
a3e04e38:	e8bd4010 	ldmia	sp!, {r4, lr}
a3e04e3c:	eafff12b 	b	a3e012f0 <printf>
a3e04e40:	a3e0730c 	mvnge	r7, #805306368	; 0x30000000
a3e04e44:	a3e07378 	mvnge	r7, #-536870911	; 0xe0000001

a3e04e48 <print_usage>:
a3e04e48:	e92d4010 	stmdb	sp!, {r4, lr}
a3e04e4c:	e59f4048 	ldr	r4, [pc, #48]	; a3e04e9c <print_usage+0x54>
a3e04e50:	e1a00004 	mov	r0, r4
a3e04e54:	ebfff125 	bl	a3e012f0 <printf>
a3e04e58:	e59f0040 	ldr	r0, [pc, #40]	; a3e04ea0 <print_usage+0x58>
a3e04e5c:	ebfff123 	bl	a3e012f0 <printf>
a3e04e60:	e59f003c 	ldr	r0, [pc, #3c]	; a3e04ea4 <print_usage+0x5c>
a3e04e64:	ebfff121 	bl	a3e012f0 <printf>
a3e04e68:	e59f0038 	ldr	r0, [pc, #38]	; a3e04ea8 <print_usage+0x60>
a3e04e6c:	ebfff11f 	bl	a3e012f0 <printf>
a3e04e70:	e59f0034 	ldr	r0, [pc, #34]	; a3e04eac <print_usage+0x64>
a3e04e74:	ebfff11d 	bl	a3e012f0 <printf>
a3e04e78:	e59f0030 	ldr	r0, [pc, #30]	; a3e04eb0 <print_usage+0x68>
a3e04e7c:	ebfff11b 	bl	a3e012f0 <printf>
a3e04e80:	e59f002c 	ldr	r0, [pc, #2c]	; a3e04eb4 <print_usage+0x6c>
a3e04e84:	ebfff119 	bl	a3e012f0 <printf>
a3e04e88:	e59f0028 	ldr	r0, [pc, #28]	; a3e04eb8 <print_usage+0x70>
a3e04e8c:	ebfff117 	bl	a3e012f0 <printf>
a3e04e90:	e1a00004 	mov	r0, r4
a3e04e94:	e8bd4010 	ldmia	sp!, {r4, lr}
a3e04e98:	eafff114 	b	a3e012f0 <printf>
a3e04e9c:	a3e0730c 	mvnge	r7, #805306368	; 0x30000000
a3e04ea0:	a3e0739c 	mvnge	r7, #1879048194	; 0x70000002
a3e04ea4:	a3e073c0 	mvnge	r7, #3	; 0x3
a3e04ea8:	a3e073d8 	mvnge	r7, #1610612739	; 0x60000003
a3e04eac:	a3e073fc 	mvnge	r7, #-268435453	; 0xf0000003
a3e04eb0:	a3e07420 	mvnge	r7, #536870912	; 0x20000000
a3e04eb4:	a3e07444 	mvnge	r7, #1140850688	; 0x44000000
a3e04eb8:	a3e07460 	mvnge	r7, #1610612736	; 0x60000000

a3e04ebc <print_ox>:
a3e04ebc:	e59f2010 	ldr	r2, [pc, #10]	; a3e04ed4 <print_ox+0x18>
a3e04ec0:	e59f3010 	ldr	r3, [pc, #10]	; a3e04ed8 <print_ox+0x1c>
a3e04ec4:	e3500000 	cmp	r0, #0	; 0x0
a3e04ec8:	11a00003 	movne	r0, r3
a3e04ecc:	01a00002 	moveq	r0, r2
a3e04ed0:	e1a0f00e 	mov	pc, lr
a3e04ed4:	a3e07488 	mvnge	r7, #-2013265920	; 0x88000000
a3e04ed8:	a3e07484 	mvnge	r7, #-2080374784	; 0x84000000

a3e04edc <print_status>:
a3e04edc:	e92d4030 	stmdb	sp!, {r4, r5, lr}
a3e04ee0:	e59f511c 	ldr	r5, [pc, #11c]	; a3e05004 <print_status+0x128>
a3e04ee4:	e1a04000 	mov	r4, r0
a3e04ee8:	e1a00005 	mov	r0, r5
a3e04eec:	ebfff0ff 	bl	a3e012f0 <printf>
a3e04ef0:	e59f0110 	ldr	r0, [pc, #110]	; a3e05008 <print_status+0x12c>
a3e04ef4:	ebfff0fd 	bl	a3e012f0 <printf>
a3e04ef8:	e1a00005 	mov	r0, r5
a3e04efc:	ebfff0fb 	bl	a3e012f0 <printf>
a3e04f00:	e2140001 	ands	r0, r4, #1	; 0x1
a3e04f04:	13e00000 	mvnne	r0, #0	; 0x0
a3e04f08:	ebffffeb 	bl	a3e04ebc <print_ox>
a3e04f0c:	e1a01000 	mov	r1, r0
a3e04f10:	e59f00f4 	ldr	r0, [pc, #f4]	; a3e0500c <print_status+0x130>
a3e04f14:	ebfff0f5 	bl	a3e012f0 <printf>
a3e04f18:	e1a00f04 	mov	r0, r4, lsl #30
a3e04f1c:	e3500000 	cmp	r0, #0	; 0x0
a3e04f20:	a3a00000 	movge	r0, #0	; 0x0
a3e04f24:	b3e00000 	mvnlt	r0, #0	; 0x0
a3e04f28:	ebffffe3 	bl	a3e04ebc <print_ox>
a3e04f2c:	e1a01000 	mov	r1, r0
a3e04f30:	e59f00d8 	ldr	r0, [pc, #d8]	; a3e05010 <print_status+0x134>
a3e04f34:	ebfff0ed 	bl	a3e012f0 <printf>
a3e04f38:	e1a00e84 	mov	r0, r4, lsl #29
a3e04f3c:	e3500000 	cmp	r0, #0	; 0x0
a3e04f40:	a3a00000 	movge	r0, #0	; 0x0
a3e04f44:	b3e00000 	mvnlt	r0, #0	; 0x0
a3e04f48:	ebffffdb 	bl	a3e04ebc <print_ox>
a3e04f4c:	e1a01000 	mov	r1, r0
a3e04f50:	e59f00bc 	ldr	r0, [pc, #bc]	; a3e05014 <print_status+0x138>
a3e04f54:	ebfff0e5 	bl	a3e012f0 <printf>
a3e04f58:	e1a00e04 	mov	r0, r4, lsl #28
a3e04f5c:	e3500000 	cmp	r0, #0	; 0x0
a3e04f60:	a3a00000 	movge	r0, #0	; 0x0
a3e04f64:	b3e00000 	mvnlt	r0, #0	; 0x0
a3e04f68:	ebffffd3 	bl	a3e04ebc <print_ox>
a3e04f6c:	e1a01000 	mov	r1, r0
a3e04f70:	e59f00a0 	ldr	r0, [pc, #a0]	; a3e05018 <print_status+0x13c>
a3e04f74:	ebfff0dd 	bl	a3e012f0 <printf>
a3e04f78:	e1a00d84 	mov	r0, r4, lsl #27
a3e04f7c:	e3500000 	cmp	r0, #0	; 0x0
a3e04f80:	a3a00000 	movge	r0, #0	; 0x0
a3e04f84:	b3e00000 	mvnlt	r0, #0	; 0x0
a3e04f88:	ebffffcb 	bl	a3e04ebc <print_ox>
a3e04f8c:	e1a01000 	mov	r1, r0
a3e04f90:	e59f0084 	ldr	r0, [pc, #84]	; a3e0501c <print_status+0x140>
a3e04f94:	ebfff0d5 	bl	a3e012f0 <printf>
a3e04f98:	e1a00d04 	mov	r0, r4, lsl #26
a3e04f9c:	e3500000 	cmp	r0, #0	; 0x0
a3e04fa0:	a3a00000 	movge	r0, #0	; 0x0
a3e04fa4:	b3e00000 	mvnlt	r0, #0	; 0x0
a3e04fa8:	ebffffc3 	bl	a3e04ebc <print_ox>
a3e04fac:	e1a01000 	mov	r1, r0
a3e04fb0:	e59f0068 	ldr	r0, [pc, #68]	; a3e05020 <print_status+0x144>
a3e04fb4:	ebfff0cd 	bl	a3e012f0 <printf>
a3e04fb8:	e1a00c84 	mov	r0, r4, lsl #25
a3e04fbc:	e3500000 	cmp	r0, #0	; 0x0
a3e04fc0:	a3a00000 	movge	r0, #0	; 0x0
a3e04fc4:	b3e00000 	mvnlt	r0, #0	; 0x0
a3e04fc8:	ebffffbb 	bl	a3e04ebc <print_ox>
a3e04fcc:	e1a01000 	mov	r1, r0
a3e04fd0:	e59f004c 	ldr	r0, [pc, #4c]	; a3e05024 <print_status+0x148>
a3e04fd4:	ebfff0c5 	bl	a3e012f0 <printf>
a3e04fd8:	e1a04c04 	mov	r4, r4, lsl #24
a3e04fdc:	e3540000 	cmp	r4, #0	; 0x0
a3e04fe0:	a3a00000 	movge	r0, #0	; 0x0
a3e04fe4:	b3e00000 	mvnlt	r0, #0	; 0x0
a3e04fe8:	ebffffb3 	bl	a3e04ebc <print_ox>
a3e04fec:	e1a01000 	mov	r1, r0
a3e04ff0:	e59f0030 	ldr	r0, [pc, #30]	; a3e05028 <print_status+0x14c>
a3e04ff4:	ebfff0bd 	bl	a3e012f0 <printf>
a3e04ff8:	e1a00005 	mov	r0, r5
a3e04ffc:	e8bd4030 	ldmia	sp!, {r4, r5, lr}
a3e05000:	eafff0ba 	b	a3e012f0 <printf>
a3e05004:	a3e0730c 	mvnge	r7, #805306368	; 0x30000000
a3e05008:	a3e0748c 	mvnge	r7, #-1946157056	; 0x8c000000
a3e0500c:	a3e074b0 	mvnge	r7, #-1342177280	; 0xb0000000
a3e05010:	a3e074c4 	mvnge	r7, #-1006632960	; 0xc4000000
a3e05014:	a3e074dc 	mvnge	r7, #-603979776	; 0xdc000000
a3e05018:	a3e074f8 	mvnge	r7, #-134217728	; 0xf8000000
a3e0501c:	a3e07510 	mvnge	r7, #67108864	; 0x4000000
a3e05020:	a3e0752c 	mvnge	r7, #184549376	; 0xb000000
a3e05024:	a3e07548 	mvnge	r7, #301989888	; 0x12000000
a3e05028:	a3e07560 	mvnge	r7, #402653184	; 0x18000000

a3e0502c <Cmd_Kernel>:
a3e0502c:	e92d4000 	stmdb	sp!, {lr}
a3e05030:	e3500000 	cmp	r0, #0	; 0x0
a3e05034:	e59f3034 	ldr	r3, [pc, #34]	; a3e05070 <Cmd_Kernel+0x44>
a3e05038:	e59f2034 	ldr	r2, [pc, #34]	; a3e05074 <Cmd_Kernel+0x48>
a3e0503c:	e59f1034 	ldr	r1, [pc, #34]	; a3e05078 <Cmd_Kernel+0x4c>
a3e05040:	e59fc034 	ldr	ip, [pc, #34]	; a3e0507c <Cmd_Kernel+0x50>
a3e05044:	e24dd014 	sub	sp, sp, #20	; 0x14
a3e05048:	e58d1010 	str	r1, [sp, #16]
a3e0504c:	e58d1004 	str	r1, [sp, #4]
a3e05050:	e1a0100d 	mov	r1, sp
a3e05054:	e58d3008 	str	r3, [sp, #8]
a3e05058:	e58d200c 	str	r2, [sp, #12]
a3e0505c:	e58dc000 	str	ip, [sp]
a3e05060:	1a000006 	bne	a3e05080 <Cmd_Kernel+0x54>
a3e05064:	e3a00002 	mov	r0, #2	; 0x2
a3e05068:	ebfff9c3 	bl	a3e0377c <DoFlash>
a3e0506c:	ea000006 	b	a3e0508c <Cmd_Kernel+0x60>
a3e05070:	a3e06480 	mvnge	r6, #-2147483648	; 0x80000000
a3e05074:	a3e07578 	mvnge	r7, #503316480	; 0x1e000000
a3e05078:	a3e05da4 	mvnge	r5, #10496	; 0x2900
a3e0507c:	a3e067e8 	mvnge	r6, #60817408	; 0x3a00000
a3e05080:	e3a00003 	mov	r0, #3	; 0x3
a3e05084:	e28d1008 	add	r1, sp, #8	; 0x8
a3e05088:	ebfff743 	bl	a3e02d9c <DoTftp>
a3e0508c:	e28dd014 	add	sp, sp, #20	; 0x14
a3e05090:	e8bd8000 	ldmia	sp!, {pc}

a3e05094 <Cmd_Ramdisk>:
a3e05094:	e92d4000 	stmdb	sp!, {lr}
a3e05098:	e3500000 	cmp	r0, #0	; 0x0
a3e0509c:	e59f3034 	ldr	r3, [pc, #34]	; a3e050d8 <Cmd_Ramdisk+0x44>
a3e050a0:	e59f2034 	ldr	r2, [pc, #34]	; a3e050dc <Cmd_Ramdisk+0x48>
a3e050a4:	e59f1034 	ldr	r1, [pc, #34]	; a3e050e0 <Cmd_Ramdisk+0x4c>
a3e050a8:	e59fc034 	ldr	ip, [pc, #34]	; a3e050e4 <Cmd_Ramdisk+0x50>
a3e050ac:	e24dd014 	sub	sp, sp, #20	; 0x14
a3e050b0:	e58d1010 	str	r1, [sp, #16]
a3e050b4:	e58d1004 	str	r1, [sp, #4]
a3e050b8:	e1a0100d 	mov	r1, sp
a3e050bc:	e58d3008 	str	r3, [sp, #8]
a3e050c0:	e58d200c 	str	r2, [sp, #12]
a3e050c4:	e58dc000 	str	ip, [sp]
a3e050c8:	1a000006 	bne	a3e050e8 <Cmd_Ramdisk+0x54>
a3e050cc:	e3a00002 	mov	r0, #2	; 0x2
a3e050d0:	ebfff9a9 	bl	a3e0377c <DoFlash>
a3e050d4:	ea000006 	b	a3e050f4 <Cmd_Ramdisk+0x60>
a3e050d8:	a3e06480 	mvnge	r6, #-2147483648	; 0x80000000
a3e050dc:	a3e07580 	mvnge	r7, #536870912	; 0x20000000
a3e050e0:	a3e05dac 	mvnge	r5, #11008	; 0x2b00
a3e050e4:	a3e067e8 	mvnge	r6, #60817408	; 0x3a00000
a3e050e8:	e3a00003 	mov	r0, #3	; 0x3
a3e050ec:	e28d1008 	add	r1, sp, #8	; 0x8
a3e050f0:	ebfff729 	bl	a3e02d9c <DoTftp>
a3e050f4:	e28dd014 	add	sp, sp, #20	; 0x14
a3e050f8:	e8bd8000 	ldmia	sp!, {pc}

a3e050fc <Cmd_Usr>:
a3e050fc:	e92d4000 	stmdb	sp!, {lr}
a3e05100:	e3500000 	cmp	r0, #0	; 0x0
a3e05104:	e59f3034 	ldr	r3, [pc, #34]	; a3e05140 <Cmd_Usr+0x44>
a3e05108:	e59f2034 	ldr	r2, [pc, #34]	; a3e05144 <Cmd_Usr+0x48>
a3e0510c:	e59f1034 	ldr	r1, [pc, #34]	; a3e05148 <Cmd_Usr+0x4c>
a3e05110:	e59fc034 	ldr	ip, [pc, #34]	; a3e0514c <Cmd_Usr+0x50>
a3e05114:	e24dd014 	sub	sp, sp, #20	; 0x14
a3e05118:	e58d1010 	str	r1, [sp, #16]
a3e0511c:	e58d1004 	str	r1, [sp, #4]
a3e05120:	e1a0100d 	mov	r1, sp
a3e05124:	e58d3008 	str	r3, [sp, #8]
a3e05128:	e58d200c 	str	r2, [sp, #12]
a3e0512c:	e58dc000 	str	ip, [sp]
a3e05130:	1a000006 	bne	a3e05150 <Cmd_Usr+0x54>
a3e05134:	e3a00002 	mov	r0, #2	; 0x2
a3e05138:	ebfff98f 	bl	a3e0377c <DoFlash>
a3e0513c:	ea000006 	b	a3e0515c <Cmd_Usr+0x60>
a3e05140:	a3e06480 	mvnge	r6, #-2147483648	; 0x80000000
a3e05144:	a3e07590 	mvnge	r7, #603979776	; 0x24000000
a3e05148:	a3e05dbc 	mvnge	r5, #12032	; 0x2f00
a3e0514c:	a3e067e8 	mvnge	r6, #60817408	; 0x3a00000
a3e05150:	e3a00003 	mov	r0, #3	; 0x3
a3e05154:	e28d1008 	add	r1, sp, #8	; 0x8
a3e05158:	ebfff70f 	bl	a3e02d9c <DoTftp>
a3e0515c:	e28dd014 	add	sp, sp, #20	; 0x14
a3e05160:	e8bd8000 	ldmia	sp!, {pc}

a3e05164 <Cmd_Mac>:
a3e05164:	e92d4070 	stmdb	sp!, {r4, r5, r6, lr}
a3e05168:	e1a06001 	mov	r6, r1
a3e0516c:	e1a05000 	mov	r5, r0
a3e05170:	e59f1070 	ldr	r1, [pc, #70]	; a3e051e8 <Cmd_Mac+0x84>
a3e05174:	e59f3070 	ldr	r3, [pc, #70]	; a3e051ec <Cmd_Mac+0x88>
a3e05178:	e24dd020 	sub	sp, sp, #32	; 0x20
a3e0517c:	e1a0400d 	mov	r4, sp
a3e05180:	e1a00004 	mov	r0, r4
a3e05184:	e58d3014 	str	r3, [sp, #20]
a3e05188:	ebffee7a 	bl	a3e00b78 <StrCpy>
a3e0518c:	e3550000 	cmp	r5, #0	; 0x0
a3e05190:	e59f3058 	ldr	r3, [pc, #58]	; a3e051f0 <Cmd_Mac+0x8c>
a3e05194:	059f3058 	ldreq	r3, [pc, #58]	; a3e051f4 <Cmd_Mac+0x90>
a3e05198:	e58d3018 	str	r3, [sp, #24]
a3e0519c:	e58d401c 	str	r4, [sp, #28]
a3e051a0:	e5d62000 	ldrb	r2, [r6]
a3e051a4:	e5d63001 	ldrb	r3, [r6, #1]
a3e051a8:	e1a01004 	mov	r1, r4
a3e051ac:	e5c42008 	strb	r2, [r4, #8]
a3e051b0:	e5c13009 	strb	r3, [r1, #9]
a3e051b4:	e59d201c 	ldr	r2, [sp, #28]
a3e051b8:	e5d63002 	ldrb	r3, [r6, #2]
a3e051bc:	e3a00003 	mov	r0, #3	; 0x3
a3e051c0:	e5c2300a 	strb	r3, [r2, #10]
a3e051c4:	e59dc01c 	ldr	ip, [sp, #28]
a3e051c8:	e5d63003 	ldrb	r3, [r6, #3]
a3e051cc:	e28d1014 	add	r1, sp, #20	; 0x14
a3e051d0:	e5cc300b 	strb	r3, [ip, #11]
a3e051d4:	e59d201c 	ldr	r2, [sp, #28]
a3e051d8:	e3a03000 	mov	r3, #0	; 0x0
a3e051dc:	e5c2300c 	strb	r3, [r2, #12]
a3e051e0:	ebfffc2f 	bl	a3e042a4 <DoMacWrite>
a3e051e4:	ea000003 	b	a3e051f8 <Cmd_Mac+0x94>
a3e051e8:	a3e0759c 	mvnge	r7, #654311424	; 0x27000000
a3e051ec:	a3e063bc 	mvnge	r6, #-268435454	; 0xf0000002
a3e051f0:	a3e06d04 	mvnge	r6, #256	; 0x100
a3e051f4:	a3e06d00 	mvnge	r6, #0	; 0x0
a3e051f8:	e28dd020 	add	sp, sp, #32	; 0x20
a3e051fc:	e8bd8070 	ldmia	sp!, {r4, r5, r6, pc}

a3e05200 <c_main>:
a3e05200:	e92d47f0 	stmdb	sp!, {r4, r5, r6, r7, r8, r9, sl, lr}
a3e05204:	e24dd0cc 	sub	sp, sp, #204	; 0xcc
a3e05208:	ebffec40 	bl	a3e00310 <SerialInit>
a3e0520c:	e59f0118 	ldr	r0, [pc, #118]	; a3e0532c <c_main+0x12c>
a3e05210:	e3a07000 	mov	r7, #0	; 0x0
a3e05214:	ebfff035 	bl	a3e012f0 <printf>
a3e05218:	e59f0110 	ldr	r0, [pc, #110]	; a3e05330 <c_main+0x130>
a3e0521c:	ebfff033 	bl	a3e012f0 <printf>
a3e05220:	e59f010c 	ldr	r0, [pc, #10c]	; a3e05334 <c_main+0x134>
a3e05224:	e59f410c 	ldr	r4, [pc, #10c]	; a3e05338 <c_main+0x138>
a3e05228:	e3a03a09 	mov	r3, #36864	; 0x9000
a3e0522c:	e5843000 	str	r3, [r4]
a3e05230:	ebffedc7 	bl	a3e00954 <user_wait>
a3e05234:	e59f0100 	ldr	r0, [pc, #100]	; a3e0533c <c_main+0x13c>
a3e05238:	e3a03c1f 	mov	r3, #7936	; 0x1f00
a3e0523c:	e5843000 	str	r3, [r4]
a3e05240:	ebffedc3 	bl	a3e00954 <user_wait>
a3e05244:	ebffedfe 	bl	a3e00a44 <IoTest>
a3e05248:	ebfff399 	bl	a3e020b4 <eth_init>
a3e0524c:	e59f00ec 	ldr	r0, [pc, #ec]	; a3e05340 <c_main+0x140>
a3e05250:	e3a09001 	mov	r9, #1	; 0x1
a3e05254:	ebfff025 	bl	a3e012f0 <printf>
a3e05258:	e3a01703 	mov	r1, #786432	; 0xc0000
a3e0525c:	e59f00e0 	ldr	r0, [pc, #e0]	; a3e05344 <c_main+0x144>
a3e05260:	e3a02941 	mov	r2, #1064960	; 0x104000
a3e05264:	ebffed88 	bl	a3e0088c <MemCpy32>
a3e05268:	e59f00d8 	ldr	r0, [pc, #d8]	; a3e05348 <c_main+0x148>
a3e0526c:	e59fa0d8 	ldr	sl, [pc, #d8]	; a3e0534c <c_main+0x14c>
a3e05270:	ebfff01e 	bl	a3e012f0 <printf>
a3e05274:	e3a01602 	mov	r1, #2097152	; 0x200000
a3e05278:	e59f00d0 	ldr	r0, [pc, #d0]	; a3e05350 <c_main+0x150>
a3e0527c:	e3a02706 	mov	r2, #1572864	; 0x180000
a3e05280:	ebffed81 	bl	a3e0088c <MemCpy32>
a3e05284:	ebfff08f 	bl	a3e014c8 <GetIPAddr>
a3e05288:	e59f00c4 	ldr	r0, [pc, #c4]	; a3e05354 <c_main+0x154>
a3e0528c:	e59f80c4 	ldr	r8, [pc, #c4]	; a3e05358 <c_main+0x158>
a3e05290:	ebfff016 	bl	a3e012f0 <printf>
a3e05294:	e1a0500d 	mov	r5, sp
a3e05298:	e28d6004 	add	r6, sp, #4	; 0x4
a3e0529c:	e1a00005 	mov	r0, r5
a3e052a0:	ebffed62 	bl	a3e00830 <GetTime>
a3e052a4:	e2804001 	add	r4, r0, #1	; 0x1
a3e052a8:	e59f00ac 	ldr	r0, [pc, #ac]	; a3e0535c <c_main+0x15c>
a3e052ac:	ebfff00f 	bl	a3e012f0 <printf>
a3e052b0:	e59f00a8 	ldr	r0, [pc, #a8]	; a3e05360 <c_main+0x160>
a3e052b4:	e2671003 	rsb	r1, r7, #3	; 0x3
a3e052b8:	ebfff00c 	bl	a3e012f0 <printf>
a3e052bc:	e1a00005 	mov	r0, r5
a3e052c0:	ebffed5a 	bl	a3e00830 <GetTime>
a3e052c4:	e1500004 	cmp	r0, r4
a3e052c8:	2a000004 	bcs	a3e052e0 <c_main+0xe0>
a3e052cc:	e59a3000 	ldr	r3, [sl]
a3e052d0:	e3130001 	tst	r3, #1	; 0x1
a3e052d4:	0afffff8 	beq	a3e052bc <c_main+0xbc>
a3e052d8:	e3a09000 	mov	r9, #0	; 0x0
a3e052dc:	e5983000 	ldr	r3, [r8]
a3e052e0:	e3590000 	cmp	r9, #0	; 0x0
a3e052e4:	0a000002 	beq	a3e052f4 <c_main+0xf4>
a3e052e8:	e2877001 	add	r7, r7, #1	; 0x1
a3e052ec:	e3570002 	cmp	r7, #2	; 0x2
a3e052f0:	daffffe9 	ble	a3e0529c <c_main+0x9c>
a3e052f4:	e3590000 	cmp	r9, #0	; 0x0
a3e052f8:	0a000000 	beq	a3e05300 <c_main+0x100>
a3e052fc:	eb000123 	bl	a3e05790 <boot_kernel>
a3e05300:	e59f005c 	ldr	r0, [pc, #5c]	; a3e05364 <c_main+0x164>
a3e05304:	ebffeff9 	bl	a3e012f0 <printf>
a3e05308:	e59f0058 	ldr	r0, [pc, #58]	; a3e05368 <c_main+0x168>
a3e0530c:	ebffeff7 	bl	a3e012f0 <printf>
a3e05310:	e1a00006 	mov	r0, r6
a3e05314:	eb000016 	bl	a3e05374 <GetCommand>
a3e05318:	e3500000 	cmp	r0, #0	; 0x0
a3e0531c:	0afffff9 	beq	a3e05308 <c_main+0x108>
a3e05320:	e1a00006 	mov	r0, r6
a3e05324:	eb00003b 	bl	a3e05418 <RunCommand>
a3e05328:	eafffff6 	b	a3e05308 <c_main+0x108>
a3e0532c:	a3e075a8 	mvnge	r7, #704643072	; 0x2a000000
a3e05330:	a3e075cc 	mvnge	r7, #855638016	; 0x33000000
a3e05334:	0000d930 	andeq	sp, r0, r0, lsr r9
a3e05338:	10100000 	andnes	r0, r0, r0
a3e0533c:	00021ef8 	streqd	r1, [r2], -r8
a3e05340:	a3e07600 	mvnge	r7, #0	; 0x0
a3e05344:	a00c0000 	andge	r0, ip, r0
a3e05348:	a3e07620 	mvnge	r7, #33554432	; 0x2000000
a3e0534c:	40100014 	andmis	r0, r0, r4, lsl r0
a3e05350:	a0600000 	rsbge	r0, r0, r0
a3e05354:	a3e07640 	mvnge	r7, #67108864	; 0x4000000
a3e05358:	40100000 	andmis	r0, r0, r0
a3e0535c:	a3e07670 	mvnge	r7, #117440512	; 0x7000000
a3e05360:	a3e07674 	mvnge	r7, #121634816	; 0x7400000
a3e05364:	a3e07678 	mvnge	r7, #125829120	; 0x7800000
a3e05368:	a3e076a8 	mvnge	r7, #176160768	; 0xa800000
a3e0536c:	e28dd0cc 	add	sp, sp, #204	; 0xcc
a3e05370:	e8bd87f0 	ldmia	sp!, {r4, r5, r6, r7, r8, r9, sl, pc}

a3e05374 <GetCommand>:
a3e05374:	e92d40f0 	stmdb	sp!, {r4, r5, r6, r7, lr}
a3e05378:	e3a04000 	mov	r4, #0	; 0x0
a3e0537c:	e1a06004 	mov	r6, r4
a3e05380:	e1a05000 	mov	r5, r0
a3e05384:	e24dd004 	sub	sp, sp, #4	; 0x4
a3e05388:	e28d7003 	add	r7, sp, #3	; 0x3
a3e0538c:	e5c54000 	strb	r4, [r5]
a3e05390:	e1a00007 	mov	r0, r7
a3e05394:	ebffed19 	bl	a3e00800 <GetChar>
a3e05398:	e1a03000 	mov	r3, r0
a3e0539c:	e3530001 	cmp	r3, #1	; 0x1
a3e053a0:	1afffffa 	bne	a3e05390 <GetCommand+0x1c>
a3e053a4:	e5dd0003 	ldrb	r0, [sp, #3]
a3e053a8:	e3500008 	cmp	r0, #8	; 0x8
a3e053ac:	0a000008 	beq	a3e053d4 <GetCommand+0x60>
a3e053b0:	e350000d 	cmp	r0, #13	; 0xd
a3e053b4:	1a000010 	bne	a3e053fc <GetCommand+0x88>
a3e053b8:	e3540000 	cmp	r4, #0	; 0x0
a3e053bc:	da000002 	ble	a3e053cc <GetCommand+0x58>
a3e053c0:	e1a00003 	mov	r0, r3
a3e053c4:	e7c56004 	strb	r6, [r5, r4]
a3e053c8:	ea000010 	b	a3e05410 <GetCommand+0x9c>
a3e053cc:	e3a00000 	mov	r0, #0	; 0x0
a3e053d0:	ea00000e 	b	a3e05410 <GetCommand+0x9c>
a3e053d4:	e3540000 	cmp	r4, #0	; 0x0
a3e053d8:	daffffec 	ble	a3e05390 <GetCommand+0x1c>
a3e053dc:	ebffeced 	bl	a3e00798 <PutChar>
a3e053e0:	e3a00020 	mov	r0, #32	; 0x20
a3e053e4:	ebffeceb 	bl	a3e00798 <PutChar>
a3e053e8:	e5dd0003 	ldrb	r0, [sp, #3]
a3e053ec:	e2444001 	sub	r4, r4, #1	; 0x1
a3e053f0:	ebffece8 	bl	a3e00798 <PutChar>
a3e053f4:	e7c56004 	strb	r6, [r5, r4]
a3e053f8:	eaffffe4 	b	a3e05390 <GetCommand+0x1c>
a3e053fc:	ebffece5 	bl	a3e00798 <PutChar>
a3e05400:	e5dd3003 	ldrb	r3, [sp, #3]
a3e05404:	e7c53004 	strb	r3, [r5, r4]
a3e05408:	e2844001 	add	r4, r4, #1	; 0x1
a3e0540c:	eaffffdf 	b	a3e05390 <GetCommand+0x1c>
a3e05410:	e28dd004 	add	sp, sp, #4	; 0x4
a3e05414:	e8bd80f0 	ldmia	sp!, {r4, r5, r6, r7, pc}

a3e05418 <RunCommand>:
a3e05418:	e92d4070 	stmdb	sp!, {r4, r5, r6, lr}
a3e0541c:	e3a05000 	mov	r5, #0	; 0x0
a3e05420:	e1a0c005 	mov	ip, r5
a3e05424:	e1a0e005 	mov	lr, r5
a3e05428:	e3a01009 	mov	r1, #9	; 0x9
a3e0542c:	e3a02024 	mov	r2, #36	; 0x24
a3e05430:	e24ddf87 	sub	sp, sp, #540	; 0x21c
a3e05434:	e28d4f7d 	add	r4, sp, #500	; 0x1f4
a3e05438:	e1a06004 	mov	r6, r4
a3e0543c:	e28d3d07 	add	r3, sp, #448	; 0x1c0
a3e05440:	e2833002 	add	r3, r3, #2	; 0x2
a3e05444:	e7823006 	str	r3, [r2, r6]
a3e05448:	e2433032 	sub	r3, r3, #50	; 0x32
a3e0544c:	e2422004 	sub	r2, r2, #4	; 0x4
a3e05450:	e2511001 	subs	r1, r1, #1	; 0x1
a3e05454:	5afffffa 	bpl	a3e05444 <RunCommand+0x2c>
a3e05458:	e5d02000 	ldrb	r2, [r0]
a3e0545c:	e3520000 	cmp	r2, #0	; 0x0
a3e05460:	1a000003 	bne	a3e05474 <RunCommand+0x5c>
a3e05464:	e7943105 	ldr	r3, [r4, r5, lsl #2]
a3e05468:	e3a05001 	mov	r5, #1	; 0x1
a3e0546c:	e5c32000 	strb	r2, [r3]
a3e05470:	ea00001a 	b	a3e054e0 <RunCommand+0xc8>
a3e05474:	e7d0200c 	ldrb	r2, [r0, ip]
a3e05478:	e3520020 	cmp	r2, #32	; 0x20
a3e0547c:	1a00000d 	bne	a3e054b8 <RunCommand+0xa0>
a3e05480:	e35e0000 	cmp	lr, #0	; 0x0
a3e05484:	0a000004 	beq	a3e0549c <RunCommand+0x84>
a3e05488:	e7941105 	ldr	r1, [r4, r5, lsl #2]
a3e0548c:	e08e3001 	add	r3, lr, r1
a3e05490:	e5532001 	ldrb	r2, [r3, -#1]
a3e05494:	e3520020 	cmp	r2, #32	; 0x20
a3e05498:	1a000001 	bne	a3e054a4 <RunCommand+0x8c>
a3e0549c:	e28cc001 	add	ip, ip, #1	; 0x1
a3e054a0:	ea000008 	b	a3e054c8 <RunCommand+0xb0>
a3e054a4:	e2855001 	add	r5, r5, #1	; 0x1
a3e054a8:	e3a03000 	mov	r3, #0	; 0x0
a3e054ac:	e7c1300e 	strb	r3, [r1, lr]
a3e054b0:	e1a0e003 	mov	lr, r3
a3e054b4:	ea000003 	b	a3e054c8 <RunCommand+0xb0>
a3e054b8:	e7943105 	ldr	r3, [r4, r5, lsl #2]
a3e054bc:	e28cc001 	add	ip, ip, #1	; 0x1
a3e054c0:	e7c3200e 	strb	r2, [r3, lr]
a3e054c4:	e28ee001 	add	lr, lr, #1	; 0x1
a3e054c8:	e7d0200c 	ldrb	r2, [r0, ip]
a3e054cc:	e3520000 	cmp	r2, #0	; 0x0
a3e054d0:	1affffe7 	bne	a3e05474 <RunCommand+0x5c>
a3e054d4:	e7943105 	ldr	r3, [r4, r5, lsl #2]
a3e054d8:	e2855001 	add	r5, r5, #1	; 0x1
a3e054dc:	e7c3200e 	strb	r2, [r3, lr]
a3e054e0:	e3550000 	cmp	r5, #0	; 0x0
a3e054e4:	da0000a7 	ble	a3e05788 <RunCommand+0x370>
a3e054e8:	e3a0000a 	mov	r0, #10	; 0xa
a3e054ec:	ebffeca9 	bl	a3e00798 <PutChar>
a3e054f0:	e59d01f4 	ldr	r0, [sp, #500]
a3e054f4:	e59f1230 	ldr	r1, [pc, #230]	; a3e0572c <RunCommand+0x314>
a3e054f8:	ebffed89 	bl	a3e00b24 <StrCmp>
a3e054fc:	e3500000 	cmp	r0, #0	; 0x0
a3e05500:	1a000003 	bne	a3e05514 <RunCommand+0xfc>
a3e05504:	e1a00005 	mov	r0, r5
a3e05508:	e1a01004 	mov	r1, r4
a3e0550c:	ebfff851 	bl	a3e03658 <DoBoot>
a3e05510:	ea000096 	b	a3e05770 <RunCommand+0x358>
a3e05514:	e59d01f4 	ldr	r0, [sp, #500]
a3e05518:	e59f1210 	ldr	r1, [pc, #210]	; a3e05730 <RunCommand+0x318>
a3e0551c:	ebffed80 	bl	a3e00b24 <StrCmp>
a3e05520:	e3500000 	cmp	r0, #0	; 0x0
a3e05524:	1a000003 	bne	a3e05538 <RunCommand+0x120>
a3e05528:	e1a00005 	mov	r0, r5
a3e0552c:	e1a01004 	mov	r1, r4
a3e05530:	ebfff851 	bl	a3e0367c <DoReset>
a3e05534:	ea00008d 	b	a3e05770 <RunCommand+0x358>
a3e05538:	e59d01f4 	ldr	r0, [sp, #500]
a3e0553c:	e59f11f0 	ldr	r1, [pc, #1f0]	; a3e05734 <RunCommand+0x31c>
a3e05540:	ebffed77 	bl	a3e00b24 <StrCmp>
a3e05544:	e3500000 	cmp	r0, #0	; 0x0
a3e05548:	1a000003 	bne	a3e0555c <RunCommand+0x144>
a3e0554c:	e1a00005 	mov	r0, r5
a3e05550:	e1a01004 	mov	r1, r4
a3e05554:	ebfff607 	bl	a3e02d78 <DoBootp>
a3e05558:	ea000084 	b	a3e05770 <RunCommand+0x358>
a3e0555c:	e59d01f4 	ldr	r0, [sp, #500]
a3e05560:	e59f11d0 	ldr	r1, [pc, #1d0]	; a3e05738 <RunCommand+0x320>
a3e05564:	ebffed6e 	bl	a3e00b24 <StrCmp>
a3e05568:	e3500000 	cmp	r0, #0	; 0x0
a3e0556c:	1a000003 	bne	a3e05580 <RunCommand+0x168>
a3e05570:	e1a00005 	mov	r0, r5
a3e05574:	e1a01004 	mov	r1, r4
a3e05578:	ebfffbdd 	bl	a3e044f4 <DoSetIP>
a3e0557c:	ea00007b 	b	a3e05770 <RunCommand+0x358>
a3e05580:	e59d01f4 	ldr	r0, [sp, #500]
a3e05584:	e59f11b0 	ldr	r1, [pc, #1b0]	; a3e0573c <RunCommand+0x324>
a3e05588:	ebffed65 	bl	a3e00b24 <StrCmp>
a3e0558c:	e3500000 	cmp	r0, #0	; 0x0
a3e05590:	1a000003 	bne	a3e055a4 <RunCommand+0x18c>
a3e05594:	e1a00005 	mov	r0, r5
a3e05598:	e1a01004 	mov	r1, r4
a3e0559c:	ebfffb40 	bl	a3e042a4 <DoMacWrite>
a3e055a0:	ea000072 	b	a3e05770 <RunCommand+0x358>
a3e055a4:	e59d01f4 	ldr	r0, [sp, #500]
a3e055a8:	e59f1190 	ldr	r1, [pc, #190]	; a3e05740 <RunCommand+0x328>
a3e055ac:	ebffed5c 	bl	a3e00b24 <StrCmp>
a3e055b0:	e3500000 	cmp	r0, #0	; 0x0
a3e055b4:	1a000003 	bne	a3e055c8 <RunCommand+0x1b0>
a3e055b8:	e1a00005 	mov	r0, r5
a3e055bc:	e1a01004 	mov	r1, r4
a3e055c0:	ebfff5f5 	bl	a3e02d9c <DoTftp>
a3e055c4:	ea000069 	b	a3e05770 <RunCommand+0x358>
a3e055c8:	e59d01f4 	ldr	r0, [sp, #500]
a3e055cc:	e59f1170 	ldr	r1, [pc, #170]	; a3e05744 <RunCommand+0x32c>
a3e055d0:	ebffed53 	bl	a3e00b24 <StrCmp>
a3e055d4:	e3500000 	cmp	r0, #0	; 0x0
a3e055d8:	1a000003 	bne	a3e055ec <RunCommand+0x1d4>
a3e055dc:	e1a00005 	mov	r0, r5
a3e055e0:	e1a01004 	mov	r1, r4
a3e055e4:	ebfff831 	bl	a3e036b0 <DoDownLoad>
a3e055e8:	ea000060 	b	a3e05770 <RunCommand+0x358>
a3e055ec:	e59d01f4 	ldr	r0, [sp, #500]
a3e055f0:	e59f1150 	ldr	r1, [pc, #150]	; a3e05748 <RunCommand+0x330>
a3e055f4:	ebffed4a 	bl	a3e00b24 <StrCmp>
a3e055f8:	e3500000 	cmp	r0, #0	; 0x0
a3e055fc:	1a000003 	bne	a3e05610 <RunCommand+0x1f8>
a3e05600:	e1a00005 	mov	r0, r5
a3e05604:	e1a01004 	mov	r1, r4
a3e05608:	ebfff85b 	bl	a3e0377c <DoFlash>
a3e0560c:	ea000057 	b	a3e05770 <RunCommand+0x358>
a3e05610:	e59d01f4 	ldr	r0, [sp, #500]
a3e05614:	e59f1130 	ldr	r1, [pc, #130]	; a3e0574c <RunCommand+0x334>
a3e05618:	ebffed41 	bl	a3e00b24 <StrCmp>
a3e0561c:	e3500000 	cmp	r0, #0	; 0x0
a3e05620:	1a000003 	bne	a3e05634 <RunCommand+0x21c>
a3e05624:	e1a00005 	mov	r0, r5
a3e05628:	e1a01004 	mov	r1, r4
a3e0562c:	ebfff8bb 	bl	a3e03920 <DoErase>
a3e05630:	ea00004e 	b	a3e05770 <RunCommand+0x358>
a3e05634:	e59d01f4 	ldr	r0, [sp, #500]
a3e05638:	e59f1110 	ldr	r1, [pc, #110]	; a3e05750 <RunCommand+0x338>
a3e0563c:	ebffed38 	bl	a3e00b24 <StrCmp>
a3e05640:	e3500000 	cmp	r0, #0	; 0x0
a3e05644:	1a000003 	bne	a3e05658 <RunCommand+0x240>
a3e05648:	e1a00005 	mov	r0, r5
a3e0564c:	e1a01004 	mov	r1, r4
a3e05650:	ebfff910 	bl	a3e03a98 <DoHelp>
a3e05654:	ea000045 	b	a3e05770 <RunCommand+0x358>
a3e05658:	e59d01f4 	ldr	r0, [sp, #500]
a3e0565c:	e59f10f0 	ldr	r1, [pc, #f0]	; a3e05754 <RunCommand+0x33c>
a3e05660:	ebffed2f 	bl	a3e00b24 <StrCmp>
a3e05664:	e3500000 	cmp	r0, #0	; 0x0
a3e05668:	1a000003 	bne	a3e0567c <RunCommand+0x264>
a3e0566c:	e1a00005 	mov	r0, r5
a3e05670:	e1a01004 	mov	r1, r4
a3e05674:	ebfffa58 	bl	a3e03fdc <DoRead>
a3e05678:	ea00003c 	b	a3e05770 <RunCommand+0x358>
a3e0567c:	e59d01f4 	ldr	r0, [sp, #500]
a3e05680:	e59f10d0 	ldr	r1, [pc, #d0]	; a3e05758 <RunCommand+0x340>
a3e05684:	ebffed26 	bl	a3e00b24 <StrCmp>
a3e05688:	e3500000 	cmp	r0, #0	; 0x0
a3e0568c:	1a000003 	bne	a3e056a0 <RunCommand+0x288>
a3e05690:	e1a00005 	mov	r0, r5
a3e05694:	e1a01004 	mov	r1, r4
a3e05698:	ebfffaaf 	bl	a3e0415c <DoWrite>
a3e0569c:	ea000033 	b	a3e05770 <RunCommand+0x358>
a3e056a0:	e59d01f4 	ldr	r0, [sp, #500]
a3e056a4:	e59f10b0 	ldr	r1, [pc, #b0]	; a3e0575c <RunCommand+0x344>
a3e056a8:	ebffed1d 	bl	a3e00b24 <StrCmp>
a3e056ac:	e3500000 	cmp	r0, #0	; 0x0
a3e056b0:	1a000003 	bne	a3e056c4 <RunCommand+0x2ac>
a3e056b4:	e1a00005 	mov	r0, r5
a3e056b8:	e1a01004 	mov	r1, r4
a3e056bc:	ebfffc21 	bl	a3e04748 <DoStatus>
a3e056c0:	ea00002a 	b	a3e05770 <RunCommand+0x358>
a3e056c4:	e59d01f4 	ldr	r0, [sp, #500]
a3e056c8:	e59f1090 	ldr	r1, [pc, #90]	; a3e05760 <RunCommand+0x348>
a3e056cc:	ebffed14 	bl	a3e00b24 <StrCmp>
a3e056d0:	e3500000 	cmp	r0, #0	; 0x0
a3e056d4:	1a000003 	bne	a3e056e8 <RunCommand+0x2d0>
a3e056d8:	e1a00005 	mov	r0, r5
a3e056dc:	e1a01004 	mov	r1, r4
a3e056e0:	ebfff7c5 	bl	a3e035fc <DoTest>
a3e056e4:	ea000021 	b	a3e05770 <RunCommand+0x358>
a3e056e8:	e59d01f4 	ldr	r0, [sp, #500]
a3e056ec:	e59f1070 	ldr	r1, [pc, #70]	; a3e05764 <RunCommand+0x34c>
a3e056f0:	ebffed0b 	bl	a3e00b24 <StrCmp>
a3e056f4:	e3500000 	cmp	r0, #0	; 0x0
a3e056f8:	0a000004 	beq	a3e05710 <RunCommand+0x2f8>
a3e056fc:	e59d01f4 	ldr	r0, [sp, #500]
a3e05700:	e59f1060 	ldr	r1, [pc, #60]	; a3e05768 <RunCommand+0x350>
a3e05704:	ebffed06 	bl	a3e00b24 <StrCmp>
a3e05708:	e3500000 	cmp	r0, #0	; 0x0
a3e0570c:	1a000003 	bne	a3e05720 <RunCommand+0x308>
a3e05710:	e1a00005 	mov	r0, r5
a3e05714:	e1a01004 	mov	r1, r4
a3e05718:	ebfffcce 	bl	a3e04a58 <DoUpgrade>
a3e0571c:	ea000013 	b	a3e05770 <RunCommand+0x358>
a3e05720:	e59f0044 	ldr	r0, [pc, #44]	; a3e0576c <RunCommand+0x354>
a3e05724:	ebffeef1 	bl	a3e012f0 <printf>
a3e05728:	ea000016 	b	a3e05788 <RunCommand+0x370>
a3e0572c:	a3e076b4 	mvnge	r7, #188743680	; 0xb400000
a3e05730:	a3e076bc 	mvnge	r7, #197132288	; 0xbc00000
a3e05734:	a3e076c4 	mvnge	r7, #205520896	; 0xc400000
a3e05738:	a3e076cc 	mvnge	r7, #213909504	; 0xcc00000
a3e0573c:	a3e076d4 	mvnge	r7, #222298112	; 0xd400000
a3e05740:	a3e076e0 	mvnge	r7, #234881024	; 0xe000000
a3e05744:	a3e076e8 	mvnge	r7, #243269632	; 0xe800000
a3e05748:	a3e076f4 	mvnge	r7, #255852544	; 0xf400000
a3e0574c:	a3e076fc 	mvnge	r7, #264241152	; 0xfc00000
a3e05750:	a3e07704 	mvnge	r7, #1048576	; 0x100000
a3e05754:	a3e0770c 	mvnge	r7, #3145728	; 0x300000
a3e05758:	a3e07714 	mvnge	r7, #5242880	; 0x500000
a3e0575c:	a3e0771c 	mvnge	r7, #7340032	; 0x700000
a3e05760:	a3e07724 	mvnge	r7, #9437184	; 0x900000
a3e05764:	a3e0772c 	mvnge	r7, #11534336	; 0xb00000
a3e05768:	a3e07734 	mvnge	r7, #13631488	; 0xd00000
a3e0576c:	a3e07738 	mvnge	r7, #14680064	; 0xe00000
a3e05770:	e3500000 	cmp	r0, #0	; 0x0
a3e05774:	1a000003 	bne	a3e05788 <RunCommand+0x370>
a3e05778:	e59f0004 	ldr	r0, [pc, #4]	; a3e05784 <RunCommand+0x36c>
a3e0577c:	ebffeedb 	bl	a3e012f0 <printf>
a3e05780:	ea000000 	b	a3e05788 <RunCommand+0x370>
a3e05784:	a3e07750 	mvnge	r7, #20971520	; 0x1400000
a3e05788:	e28ddf87 	add	sp, sp, #540	; 0x21c
a3e0578c:	e8bd8070 	ldmia	sp!, {r4, r5, r6, pc}

a3e05790 <boot_kernel>:
a3e05790:	e92d4000 	stmdb	sp!, {lr}
a3e05794:	e59f0020 	ldr	r0, [pc, #20]	; a3e057bc <boot_kernel+0x2c>
a3e05798:	ebffeed4 	bl	a3e012f0 <printf>
a3e0579c:	e3a00000 	mov	r0, #0	; 0x0
a3e057a0:	e59f3018 	ldr	r3, [pc, #18]	; a3e057c0 <boot_kernel+0x30>
a3e057a4:	e3a010f1 	mov	r1, #241	; 0xf1
a3e057a8:	e1a0e00f 	mov	lr, pc
a3e057ac:	e1a0f003 	mov	pc, r3
a3e057b0:	e59f000c 	ldr	r0, [pc, #c]	; a3e057c4 <boot_kernel+0x34>
a3e057b4:	e8bd4000 	ldmia	sp!, {lr}
a3e057b8:	eaffeecc 	b	a3e012f0 <printf>
a3e057bc:	a3e07764 	mvnge	r7, #26214400	; 0x1900000
a3e057c0:	a00c0000 	andge	r0, ip, r0
a3e057c4:	a3e0777c 	mvnge	r7, #32505856	; 0x1f00000
Disassembly of section .glue_7:
Disassembly of section .glue_7t:
Disassembly of section .rodata:

a3e057c8 <version-0xc8>:
a3e057c8:	69676562 	stmvsdb	r7!, {r1, r5, r6, r8, sl, sp, lr}^
a3e057cc:	0000206e 	andeq	r2, r0, lr, rrx
a3e057d0:	00646e65 	rsbeq	r6, r4, r5, ror #28
a3e057d4:	54202a09 	strplt	r2, [r0], -#2569
a3e057d8:	736e6172 	cmnvc	lr, #-2147483620	; 0x8000001c
a3e057dc:	6574616c 	ldrvsb	r6, [r4, -#364]!
a3e057e0:	616d6920 	cmnvs	sp, r0, lsr #18
a3e057e4:	62206567 	eorvs	r6, r0, #432013312	; 0x19c00000
a3e057e8:	73752079 	cmnvc	r5, #121	; 0x79
a3e057ec:	20676e69 	rsbcs	r6, r7, r9, ror #28
a3e057f0:	6e657575 	mcrvs	5, 3, r7, cr5, cr5, {3}
a3e057f4:	65646f63 	strvsb	r6, [r4, -#3939]!
a3e057f8:	206e6920 	rsbcs	r6, lr, r0, lsr #18
a3e057fc:	74736f68 	ldrvcbt	r6, [r3], -#3944
a3e05800:	20435020 	subcs	r5, r3, r0, lsr #32
a3e05804:	00000a2a 	andeq	r0, r0, sl, lsr #20
a3e05808:	63655209 	cmnvs	r5, #-1879048192	; 0x90000000
a3e0580c:	65766965 	ldrvsb	r6, [r6, -#2405]!
a3e05810:	79622064 	stmvcdb	r2!, {r2, r5, r6, sp}^
a3e05814:	20736574 	rsbcss	r6, r3, r4, ror r5
a3e05818:	7830203a 	ldmvcda	r0!, {r1, r3, r4, r5, sp}
a3e0581c:	6c383025 	ldcvs	0, cr3, [r8], -#148
a3e05820:	00000078 	andeq	r0, r0, r8, ror r0
a3e05824:	636c6557 	cmnvs	ip, #364904448	; 0x15c00000
a3e05828:	20656d6f 	rsbcs	r6, r5, pc, ror #26
a3e0582c:	65206f74 	strvs	r6, [r0, -#3956]!
a3e05830:	6465626d 	strvsbt	r6, [r5], -#621
a3e05834:	21646564 	cmncs	r4, r4, ror #10
a3e05838:	00000000 	andeq	r0, r0, r0
a3e0583c:	4f504d45 	swimi	0x00504d45
a3e05840:	49492d53 	stmmidb	r9, {r0, r1, r4, r6, r8, sl, fp, sp}^
a3e05844:	00000000 	andeq	r0, r0, r0
a3e05848:	00007830 	andeq	r7, r0, r0, lsr r8
a3e0584c:	00006325 	andeq	r6, r0, r5, lsr #6
a3e05850:	08080808 	stmeqda	r8, {r3, fp}
a3e05854:	08080808 	stmeqda	r8, {r3, fp}
a3e05858:	08080808 	stmeqda	r8, {r3, fp}
a3e0585c:	08080808 	stmeqda	r8, {r3, fp}
a3e05860:	08080808 	stmeqda	r8, {r3, fp}
a3e05864:	08080808 	stmeqda	r8, {r3, fp}
a3e05868:	08080808 	stmeqda	r8, {r3, fp}
a3e0586c:	08080808 	stmeqda	r8, {r3, fp}
a3e05870:	08080808 	stmeqda	r8, {r3, fp}
a3e05874:	08080808 	stmeqda	r8, {r3, fp}
a3e05878:	08080808 	stmeqda	r8, {r3, fp}
a3e0587c:	08080808 	stmeqda	r8, {r3, fp}
a3e05880:	08080808 	stmeqda	r8, {r3, fp}
a3e05884:	08080808 	stmeqda	r8, {r3, fp}
a3e05888:	08080808 	stmeqda	r8, {r3, fp}
a3e0588c:	00000000 	andeq	r0, r0, r0

a3e05890 <version>:
a3e05890:	39636d73 	stmccdb	r3!, {r0, r1, r4, r5, r6, r8, sl, fp, sp, lr}^
a3e05894:	31313131 	teqcc	r1, r1, lsr r1
a3e05898:	763a632e 	ldrvct	r6, [sl], -lr, lsr #6
a3e0589c:	20302e31 	eorcss	r2, r0, r1, lsr lr
a3e058a0:	322f3430 	eorcc	r3, pc, #805306368	; 0x30000000
a3e058a4:	31302f35 	teqcc	r0, r5, lsr pc
a3e058a8:	20796220 	rsbcss	r6, r9, r0, lsr #4
a3e058ac:	69726144 	ldmvsdb	r2!, {r2, r6, r8, sp, lr}^
a3e058b0:	20412073 	subcs	r2, r1, r3, ror r0
a3e058b4:	6976654e 	ldmvsdb	r6!, {r1, r2, r3, r6, r8, sl, sp, lr}^
a3e058b8:	6428206c 	strvst	r2, [r8], -#108
a3e058bc:	6976656e 	ldmvsdb	r6!, {r1, r2, r3, r5, r6, r8, sl, sp, lr}^
a3e058c0:	6e73406c 	cdpvs	0, 7, cr4, cr3, cr12, {3}
a3e058c4:	632e636d 	teqvs	lr, #-1275068415	; 0xb4000001
a3e058c8:	0a296d6f 	beq	a4860e8c <tftpTimeout+0xa59394>
a3e058cc:	00000000 	andeq	r0, r0, r0
a3e058d0:	203a7325 	eorcss	r7, sl, r5, lsr #6
a3e058d4:	20726146 	rsbcss	r6, r2, r6, asr #2
a3e058d8:	206f6f74 	rsbcs	r6, pc, r4, ror pc
a3e058dc:	20676962 	rsbcs	r6, r7, r2, ror #18
a3e058e0:	6b636170 	blvs	a56ddea8 <tftpTimeout+0x18d63b0>
a3e058e4:	65207465 	strvs	r7, [r0, -#1125]!
a3e058e8:	726f7272 	rsbvc	r7, pc, #536870919	; 0x20000007
a3e058ec:	000a202e 	andeq	r2, sl, lr, lsr #32
a3e058f0:	39434d53 	stmccdb	r3, {r0, r1, r4, r6, r8, sl, fp, lr}^
a3e058f4:	31313131 	teqcc	r1, r1, lsr r1
a3e058f8:	00000000 	andeq	r0, r0, r0
a3e058fc:	00000820 	andeq	r0, r0, r0, lsr #16
a3e05900:	394e414c 	stmccdb	lr, {r2, r3, r6, r8, lr}^
a3e05904:	31314331 	teqcc	r1, r1, lsr r3
a3e05908:	61622031 	cmnvs	r2, r1, lsr r0
a3e0590c:	61206573 	teqvs	r0, r3, ror r5
a3e05910:	65726464 	ldrvsb	r6, [r2, -#1124]!
a3e05914:	69207373 	stmvsdb	r0!, {r0, r1, r4, r5, r6, r8, r9, ip, sp, lr}
a3e05918:	6f6e2073 	swivs	0x006e2073
a3e0591c:	6f632074 	swivs	0x00632074
a3e05920:	63657272 	cmnvs	r5, #536870919	; 0x20000007
a3e05924:	00000a74 	andeq	r0, r0, r4, ror sl
a3e05928:	394e414c 	stmccdb	lr, {r2, r3, r6, r8, lr}^
a3e0592c:	31314331 	teqcc	r1, r1, lsr r3
a3e05930:	73692031 	cmnvc	r9, #49	; 0x31
a3e05934:	746f6e20 	strvcbt	r6, [pc], #e20	; a3e0593c <version+0xac>
a3e05938:	6f727020 	swivs	0x00727020
a3e0593c:	0a646562 	beq	a571eecc <tftpTimeout+0x19173d4>
a3e05940:	00000000 	andeq	r0, r0, r0
a3e05944:	6874655b 	ldmvsda	r4!, {r0, r1, r3, r4, r6, r8, sl, sp, lr}^
a3e05948:	50205d30 	eorpl	r5, r0, r0, lsr sp
a3e0594c:	616d6972 	cmnvs	sp, r2, ror r9
a3e05950:	4c207972 	stcmi	9, cr7, [r0], -#456
a3e05954:	31394e41 	teqcc	r9, r1, asr #28
a3e05958:	31313143 	teqcc	r1, r3, asr #2
a3e0595c:	20736920 	rsbcss	r6, r3, r0, lsr #18
a3e05960:	212e4b4f 	teqcs	lr, pc, asr #22
a3e05964:	0000000a 	andeq	r0, r0, sl
a3e05968:	6874655b 	ldmvsda	r4!, {r0, r1, r3, r4, r6, r8, sl, sp, lr}^
a3e0596c:	53205d31 	teqpl	r0, #3136	; 0xc40
a3e05970:	6e6f6365 	cdpvs	3, 6, cr6, cr15, cr5, {3}
a3e05974:	79726164 	ldmvcdb	r2!, {r2, r5, r6, r8, sp, lr}^
a3e05978:	4e414c20 	cdpmi	12, 4, cr4, cr1, cr0, {1}
a3e0597c:	31433139 	cmpcc	r3, r9, lsr r1
a3e05980:	69203131 	stmvsdb	r0!, {r0, r4, r5, r8, ip, sp}
a3e05984:	4b4f2073 	blmi	a51cdb58 <tftpTimeout+0x13c6060>
a3e05988:	000a212e 	andeq	r2, sl, lr, lsr #2
a3e0598c:	503a7325 	eorpls	r7, sl, r5, lsr #6
a3e05990:	72205948 	eorvc	r5, r0, #1179648	; 0x120000
a3e05994:	74657365 	strvcbt	r7, [r5], -#869
a3e05998:	6d697420 	stcvsl	4, cr7, [r9, -#128]!
a3e0599c:	6f206465 	swivs	0x00206465
a3e059a0:	000a7475 	andeq	r7, sl, r5, ror r4
a3e059a4:	503a7325 	eorpls	r7, sl, r5, lsr #6
a3e059a8:	72205948 	eorvc	r5, r0, #1179648	; 0x120000
a3e059ac:	746f6d65 	strvcbt	r6, [pc], #d65	; a3e059b4 <version+0x124>
a3e059b0:	61662065 	cmnvs	r6, r5, rrx
a3e059b4:	20746c75 	rsbcss	r6, r4, r5, ror ip
a3e059b8:	65746564 	ldrvsb	r6, [r4, -#1380]!
a3e059bc:	64657463 	strvsbt	r7, [r5], -#1123
a3e059c0:	0000000a 	andeq	r0, r0, sl
	...
a3e059cc:	252e6425 	strcs	r6, [lr, -#1061]!
a3e059d0:	64252e64 	strvst	r2, [r5], -#3684
a3e059d4:	0064252e 	rsbeq	r2, r4, lr, lsr #10
a3e059d8:	00000020 	andeq	r0, r0, r0, lsr #32
a3e059dc:	78323025 	ldmvcda	r2!, {r0, r2, r5, ip, sp}
a3e059e0:	00000000 	andeq	r0, r0, r0
a3e059e4:	2072754f 	rsbcss	r7, r2, pc, asr #10
a3e059e8:	65687445 	strvsb	r7, [r8, -#1093]!
a3e059ec:	74656e72 	strvcbt	r6, [r5], -#3698
a3e059f0:	64646120 	strvsbt	r6, [r4], -#288
a3e059f4:	73736572 	cmnvc	r3, #478150656	; 0x1c800000
a3e059f8:	20202020 	eorcs	r2, r0, r0, lsr #32
a3e059fc:	0000203a 	andeq	r2, r0, sl, lsr r0
a3e05a00:	00000a2e 	andeq	r0, r0, lr, lsr #20
a3e05a04:	646e6553 	strvsbt	r6, [lr], -#1363
a3e05a08:	20676e69 	rsbcs	r6, r7, r9, ror #28
a3e05a0c:	746f6f62 	strvcbt	r6, [pc], #f62	; a3e05a14 <version+0x184>
a3e05a10:	61702070 	cmnvs	r0, r0, ror r0
a3e05a14:	74656b63 	strvcbt	r6, [r5], -#2915
a3e05a18:	0a2e2e2e 	beq	a49912d8 <tftpTimeout+0xb897e0>
a3e05a1c:	00000000 	andeq	r0, r0, r0
a3e05a20:	0000002e 	andeq	r0, r0, lr, lsr #32
a3e05a24:	0000000a 	andeq	r0, r0, sl
a3e05a28:	746f6f42 	strvcbt	r6, [pc], #f42	; a3e05a30 <version+0x1a0>
a3e05a2c:	61502070 	cmpvs	r0, r0, ror r0
a3e05a30:	74656b63 	strvcbt	r6, [r5], -#2915
a3e05a34:	63657220 	cmnvs	r5, #2	; 0x2
a3e05a38:	65766965 	ldrvsb	r6, [r6, -#2405]!
a3e05a3c:	000a2e64 	andeq	r2, sl, r4, ror #28
a3e05a40:	736f4809 	cmnvc	pc, #589824	; 0x90000
a3e05a44:	20202074 	eorcs	r2, r0, r4, ror r0
a3e05a48:	72657328 	rsbvc	r7, r5, #-1610612736	; 0xa0000000
a3e05a4c:	29726576 	ldmcsdb	r2!, {r1, r2, r4, r5, r6, r8, sl, sp, lr}^
a3e05a50:	68744520 	ldmvsda	r4!, {r5, r8, sl, lr}^
a3e05a54:	656e7265 	strvsb	r7, [lr, -#613]!
a3e05a58:	203a2074 	eorcss	r2, sl, r4, ror r0
a3e05a5c:	00000000 	andeq	r0, r0, r0
a3e05a60:	736f4809 	cmnvc	pc, #589824	; 0x90000
a3e05a64:	20202074 	eorcs	r2, r0, r4, ror r0
a3e05a68:	72657328 	rsbvc	r7, r5, #-1610612736	; 0xa0000000
a3e05a6c:	29726576 	ldmcsdb	r2!, {r1, r2, r4, r5, r6, r8, sl, sp, lr}^
a3e05a70:	20504920 	subcss	r4, r0, r0, lsr #18
a3e05a74:	20202020 	eorcs	r2, r0, r0, lsr #32
a3e05a78:	203a2020 	eorcss	r2, sl, r0, lsr #32
a3e05a7c:	00000000 	andeq	r0, r0, r0
a3e05a80:	696c4309 	stmvsdb	ip!, {r0, r3, r8, r9, lr}^
a3e05a84:	20746e65 	rsbcss	r6, r4, r5, ror #28
a3e05a88:	72617428 	rsbvc	r7, r1, #671088640	; 0x28000000
a3e05a8c:	29746567 	ldmcsdb	r4!, {r0, r1, r2, r5, r6, r8, sl, sp, lr}^
a3e05a90:	68744520 	ldmvsda	r4!, {r5, r8, sl, lr}^
a3e05a94:	656e7265 	strvsb	r7, [lr, -#613]!
a3e05a98:	203a2074 	eorcss	r2, sl, r4, ror r0
a3e05a9c:	00000000 	andeq	r0, r0, r0
a3e05aa0:	696c4309 	stmvsdb	ip!, {r0, r3, r8, r9, lr}^
a3e05aa4:	20746e65 	rsbcss	r6, r4, r5, ror #28
a3e05aa8:	72617428 	rsbvc	r7, r1, #671088640	; 0x28000000
a3e05aac:	29746567 	ldmcsdb	r4!, {r0, r1, r2, r5, r6, r8, sl, sp, lr}^
a3e05ab0:	20504920 	subcss	r4, r0, r0, lsr #18
a3e05ab4:	20202020 	eorcs	r2, r0, r0, lsr #32
a3e05ab8:	203a2020 	eorcss	r2, sl, r0, lsr #32
a3e05abc:	00000000 	andeq	r0, r0, r0
a3e05ac0:	746f6f42 	strvcbt	r6, [pc], #f42	; a3e05ac8 <version+0x238>
a3e05ac4:	61702070 	cmnvs	r0, r0, ror r0
a3e05ac8:	74656b63 	strvcbt	r6, [r5], -#2915
a3e05acc:	20736920 	rsbcss	r6, r3, r0, lsr #18
a3e05ad0:	20746f6e 	rsbcss	r6, r4, lr, ror #30
a3e05ad4:	65636572 	strvsb	r6, [r3, -#1394]!
a3e05ad8:	64657669 	strvsbt	r7, [r5], -#1641
a3e05adc:	000a0a2e 	andeq	r0, sl, lr, lsr #20
a3e05ae0:	6e72656b 	cdpvs	5, 7, cr6, cr2, cr11, {3}
a3e05ae4:	00006c65 	andeq	r6, r0, r5, ror #24
a3e05ae8:	646d6172 	strvsbt	r6, [sp], -#370
a3e05aec:	006b7369 	rsbeq	r7, fp, r9, ror #6
a3e05af0:	746f6f62 	strvcbt	r6, [pc], #f62	; a3e05af8 <version+0x268>
a3e05af4:	00007265 	andeq	r7, r0, r5, ror #4
a3e05af8:	00727375 	rsbeqs	r7, r2, r5, ror r3
a3e05afc:	49206f4e 	stmmidb	r0!, {r1, r2, r3, r6, r8, r9, sl, fp, sp, lr}
a3e05b00:	20202e50 	eorcs	r2, r0, r0, asr lr
a3e05b04:	206e7552 	rsbcs	r7, lr, r2, asr r5
a3e05b08:	746f6f62 	strvcbt	r6, [pc], #f62	; a3e05b10 <version+0x280>
a3e05b0c:	69662070 	stmvsdb	r6!, {r4, r5, r6, sp}^
a3e05b10:	20747372 	rsbcss	r7, r4, r2, ror r3
a3e05b14:	67206f74 	undefined
a3e05b18:	61207465 	teqvs	r0, r5, ror #8
a3e05b1c:	6c617620 	stcvsl	6, cr7, [r1], -#128
a3e05b20:	6c626169 	stfvse	f6, [r2], -#420
a3e05b24:	50492065 	subpl	r2, r9, r5, rrx
a3e05b28:	0a2e2e2e 	beq	a49913e8 <tftpTimeout+0xb898f0>
a3e05b2c:	00000000 	andeq	r0, r0, r0
a3e05b30:	6f6f4209 	swivs	0x006f4209
a3e05b34:	66207074 	undefined
a3e05b38:	656c6961 	strvsb	r6, [ip, -#2401]!
a3e05b3c:	74202e64 	strvct	r2, [r0], -#3684
a3e05b40:	61207972 	teqvs	r0, r2, ror r9
a3e05b44:	6e696167 	powvsez	f6, f1, f7
a3e05b48:	00000a2e 	andeq	r0, r0, lr, lsr #20
a3e05b4c:	746f6f62 	strvcbt	r6, [pc], #f62	; a3e05b54 <version+0x2c4>
a3e05b50:	6c696620 	stcvsl	6, cr6, [r9], -#128
a3e05b54:	616e2065 	cmnvs	lr, r5, rrx
a3e05b58:	6920656d 	stmvsdb	r0!, {r0, r2, r3, r5, r6, r8, sl, sp, lr}
a3e05b5c:	6f6e2073 	swivs	0x006e2073
a3e05b60:	78652074 	stmvcda	r5!, {r2, r4, r5, r6, sp}^
a3e05b64:	73747369 	cmnvc	r4, #-1543503871	; 0xa4000001
a3e05b68:	00000a2e 	andeq	r0, r0, lr, lsr #20
a3e05b6c:	70746654 	rsbvcs	r6, r4, r4, asr r6
a3e05b70:	61747320 	cmnvs	r4, r0, lsr #6
a3e05b74:	2e2e7472 	mcrcs	4, 1, r7, cr14, cr2, {3}
a3e05b78:	00000a2e 	andeq	r0, r0, lr, lsr #20
a3e05b7c:	736f4809 	cmnvc	pc, #589824	; 0x90000
a3e05b80:	20202074 	eorcs	r2, r0, r4, ror r0
a3e05b84:	72657328 	rsbvc	r7, r5, #-1610612736	; 0xa0000000
a3e05b88:	29726576 	ldmcsdb	r2!, {r1, r2, r4, r5, r6, r8, sl, sp, lr}^
a3e05b8c:	20504920 	subcss	r4, r0, r0, lsr #18
a3e05b90:	20202020 	eorcs	r2, r0, r0, lsr #32
a3e05b94:	203a2020 	eorcss	r2, sl, r0, lsr #32
a3e05b98:	00000000 	andeq	r0, r0, r0
a3e05b9c:	0000000a 	andeq	r0, r0, sl
a3e05ba0:	696c4309 	stmvsdb	ip!, {r0, r3, r8, r9, lr}^
a3e05ba4:	20746e65 	rsbcss	r6, r4, r5, ror #28
a3e05ba8:	72617428 	rsbvc	r7, r1, #671088640	; 0x28000000
a3e05bac:	29746567 	ldmcsdb	r4!, {r0, r1, r2, r5, r6, r8, sl, sp, lr}^
a3e05bb0:	20504920 	subcss	r4, r0, r0, lsr #18
a3e05bb4:	20202020 	eorcs	r2, r0, r0, lsr #32
a3e05bb8:	203a2020 	eorcss	r2, sl, r0, lsr #32
a3e05bbc:	00000000 	andeq	r0, r0, r0
a3e05bc0:	616f4c09 	cmnvs	pc, r9, lsl #24
a3e05bc4:	676e6964 	strvsb	r6, [lr, -r4, ror #18]!
a3e05bc8:	6c694620 	stcvsl	6, cr4, [r9], -#128
a3e05bcc:	6d616e65 	stcvsl	14, cr6, [r1, -#404]!
a3e05bd0:	20202065 	eorcs	r2, r0, r5, rrx
a3e05bd4:	20202020 	eorcs	r2, r0, r0, lsr #32
a3e05bd8:	203a2020 	eorcss	r2, sl, r0, lsr #32
a3e05bdc:	000a7325 	andeq	r7, sl, r5, lsr #6
a3e05be0:	76615309 	strvcbt	r5, [r1], -r9, lsl #6
a3e05be4:	64412065 	strvsb	r2, [r1], -#101
a3e05be8:	73657264 	cmnvc	r5, #1073741830	; 0x40000006
a3e05bec:	20202073 	eorcs	r2, r0, r3, ror r0
a3e05bf0:	20202020 	eorcs	r2, r0, r0, lsr #32
a3e05bf4:	20202020 	eorcs	r2, r0, r0, lsr #32
a3e05bf8:	203a2020 	eorcss	r2, sl, r0, lsr #32
a3e05bfc:	30257830 	eorcc	r7, r5, r0, lsr r8
a3e05c00:	0a786c38 	beq	a5c20ce8 <tftpTimeout+0x1e191f0>
a3e05c04:	00000000 	andeq	r0, r0, r0
a3e05c08:	616f4c0a 	cmnvs	pc, sl, lsl #24
a3e05c0c:	676e6964 	strvsb	r6, [lr, -r4, ror #18]!
a3e05c10:	61747320 	cmnvs	r4, r0, lsr #6
a3e05c14:	2e2e7472 	mcrcs	4, 1, r7, cr14, cr2, {3}
a3e05c18:	00000a2e 	andeq	r0, r0, lr, lsr #20
a3e05c1c:	6654090a 	ldrvsb	r0, [r4], -sl, lsl #18
a3e05c20:	69207074 	stmvsdb	r0!, {r2, r4, r5, r6, ip, sp, lr}
a3e05c24:	61662073 	cmnvs	r6, r3, ror r0
a3e05c28:	64656c69 	strvsbt	r6, [r5], -#3177
a3e05c2c:	7254202e 	subvcs	r2, r4, #46	; 0x2e
a3e05c30:	67612079 	undefined
a3e05c34:	2e6e6961 	cdpcs	9, 6, cr6, cr14, cr1, {3}
a3e05c38:	00000a0a 	andeq	r0, r0, sl, lsl #20
a3e05c3c:	6574636f 	ldrvsb	r6, [r4, -#879]!
a3e05c40:	00000074 	andeq	r0, r0, r4, ror r0
a3e05c44:	656c6946 	strvsb	r6, [ip, -#2374]!
a3e05c48:	6f6f7420 	swivs	0x006f7420
a3e05c4c:	72616c20 	rsbvc	r6, r1, #8192	; 0x2000
a3e05c50:	00006567 	andeq	r6, r0, r7, ror #10
a3e05c54:	656c6946 	strvsb	r6, [ip, -#2374]!
a3e05c58:	73616820 	cmnvc	r1, #2097152	; 0x200000
a3e05c5c:	64616220 	strvsbt	r6, [r1], -#544
a3e05c60:	67616d20 	strvsb	r6, [r1, -r0, lsr #26]!
a3e05c64:	00006369 	andeq	r6, r0, r9, ror #6
a3e05c68:	25783009 	ldrcsb	r3, [r8, -#9]!
a3e05c6c:	786c3830 	stmvcda	ip!, {r4, r5, fp, ip, sp}^
a3e05c70:	74796220 	ldrvcbt	r6, [r9], -#544
a3e05c74:	72207365 	eorvc	r7, r0, #-1811939327	; 0x94000001
a3e05c78:	69656365 	stmvsdb	r5!, {r0, r2, r5, r6, r8, r9, sp, lr}^
a3e05c7c:	2e646576 	mcrcs	5, 3, r6, cr4, cr6, {3}
a3e05c80:	00000000 	andeq	r0, r0, r0
a3e05c84:	25783009 	ldrcsb	r3, [r8, -#9]!
a3e05c88:	786c3830 	stmvcda	ip!, {r4, r5, fp, ip, sp}^
a3e05c8c:	6c252820 	stcvs	8, cr2, [r5], -#128
a3e05c90:	62202964 	eorvs	r2, r0, #1638400	; 0x190000
a3e05c94:	73657479 	cmnvc	r5, #2030043136	; 0x79000000
a3e05c98:	63657220 	cmnvs	r5, #2	; 0x2
a3e05c9c:	65766965 	ldrvsb	r6, [r6, -#2405]!
a3e05ca0:	000a2e64 	andeq	r2, sl, r4, ror #28
a3e05ca4:	74667409 	strvcbt	r7, [r6], -#1033
a3e05ca8:	6f642070 	swivs	0x00642070
a3e05cac:	0a2e656e 	beq	a499f26c <tftpTimeout+0xb97774>
a3e05cb0:	0000000a 	andeq	r0, r0, sl
a3e05cb4:	54465409 	strplb	r5, [r6], -#1033
a3e05cb8:	72652050 	rsbvc	r2, r5, #80	; 0x50
a3e05cbc:	20726f72 	rsbcss	r6, r2, r2, ror pc
a3e05cc0:	63656863 	cmnvs	r5, #6488064	; 0x630000
a3e05cc4:	6874206b 	ldmvsda	r4!, {r0, r1, r3, r5, r6, sp}^
a3e05cc8:	69662065 	stmvsdb	r6!, {r0, r2, r5, r6, sp}^
a3e05ccc:	6e20656c 	cdpvs	5, 2, cr6, cr0, cr12, {3}
a3e05cd0:	2e656d61 	cdpcs	13, 6, cr6, cr5, cr1, {3}
a3e05cd4:	00000a2e 	andeq	r0, r0, lr, lsr #20
a3e05cd8:	6f6c420a 	swivs	0x006c420a
a3e05cdc:	4c206b63 	stcmi	11, cr6, [r0], -#396
a3e05ce0:	2d6b636f 	stccsl	3, cr6, [fp, -#444]!
a3e05ce4:	20746962 	rsbcss	r6, r4, r2, ror #18
a3e05ce8:	65746564 	ldrvsb	r6, [r4, -#1380]!
a3e05cec:	64657463 	strvsbt	r7, [r5], -#1123
a3e05cf0:	000a0a2e 	andeq	r0, sl, lr, lsr #20
a3e05cf4:	6c6f560a 	stcvsl	6, cr5, [pc], -#40
a3e05cf8:	65676174 	strvsb	r6, [r7, -#372]!
a3e05cfc:	6e615220 	cdpvs	2, 6, cr5, cr1, cr0, {1}
a3e05d00:	45206567 	strmi	r6, [r0, -#1383]!
a3e05d04:	726f7272 	rsbvc	r7, pc, #536870919	; 0x20000007
a3e05d08:	000a0a2e 	andeq	r0, sl, lr, lsr #20
a3e05d0c:	6d6f430a 	stcvsl	3, cr4, [pc, -#40]!
a3e05d10:	646e616d 	strvsbt	r6, [lr], -#365
a3e05d14:	71655320 	cmnvc	r5, r0, lsr #6
a3e05d18:	636e6575 	cmnvs	lr, #490733568	; 0x1d400000
a3e05d1c:	72452065 	subvc	r2, r5, #101	; 0x65
a3e05d20:	2e726f72 	mrccs	15, 3, r6, cr2, cr2, {3}
a3e05d24:	00000a0a 	andeq	r0, r0, sl, lsl #20
a3e05d28:	6961460a 	stmvsdb	r1!, {r1, r3, r9, sl, lr}^
a3e05d2c:	6f74206c 	swivs	0x0074206c
a3e05d30:	61726520 	cmnvs	r2, r0, lsr #10
a3e05d34:	202e6573 	eorcs	r6, lr, r3, ror r5
a3e05d38:	72746572 	rsbvcs	r6, r4, #478150656	; 0x1c800000
a3e05d3c:	67612079 	undefined
a3e05d40:	2e6e6961 	cdpcs	9, 6, cr6, cr14, cr1, {3}
a3e05d44:	00000a0a 	andeq	r0, r0, sl, lsl #20
a3e05d48:	616c460a 	cmnvs	ip, sl, lsl #12
a3e05d4c:	75206873 	strvc	r6, [r0, -#2163]!
a3e05d50:	6f6e6b6e 	swivs	0x006e6b6e
a3e05d54:	65206e77 	strvs	r6, [r0, -#3703]!
a3e05d58:	726f7272 	rsbvc	r7, pc, #536870919	; 0x20000007
a3e05d5c:	0a0a2e2e 	beq	a409161c <tftpTimeout+0x289b24>
a3e05d60:	00000000 	andeq	r0, r0, r0
a3e05d64:	72754309 	rsbvcs	r4, r5, #603979776	; 0x24000000
a3e05d68:	746e6572 	strvcbt	r6, [lr], -#1394
a3e05d6c:	6f6c6220 	swivs	0x006c6220
a3e05d70:	61206b63 	teqvs	r0, r3, ror #22
a3e05d74:	65726464 	ldrvsb	r6, [r2, -#1124]!
a3e05d78:	3a097373 	bcc	a4062b4c <tftpTimeout+0x25b054>
a3e05d7c:	25783020 	ldrcsb	r3, [r8, -#32]!
a3e05d80:	786c3830 	stmvcda	ip!, {r4, r5, fp, ip, sp}^
a3e05d84:	00000000 	andeq	r0, r0, r0
a3e05d88:	0000000a 	andeq	r0, r0, sl
a3e05d8c:	0064656c 	rsbeq	r6, r4, ip, ror #10
a3e05d90:	7365720a 	cmnvc	r5, #-1610612736	; 0xa0000000
a3e05d94:	66207465 	strvst	r7, [r0], -r5, ror #8
a3e05d98:	656c6961 	strvsb	r6, [ip, -#2401]!
a3e05d9c:	2e2e2e64 	cdpcs	14, 2, cr2, cr14, cr4, {3}
a3e05da0:	00000a0a 	andeq	r0, r0, sl, lsl #20
a3e05da4:	6e72656b 	cdpvs	5, 7, cr6, cr2, cr11, {3}
a3e05da8:	00006c65 	andeq	r6, r0, r5, ror #24
a3e05dac:	646d6172 	strvsbt	r6, [sp], -#370
a3e05db0:	006b7369 	rsbeq	r7, fp, r9, ror #6
a3e05db4:	746f6f62 	strvcbt	r6, [pc], #f62	; a3e05dbc <version+0x52c>
a3e05db8:	00007265 	andeq	r7, r0, r5, ror #4
a3e05dbc:	00727375 	rsbeqs	r7, r2, r5, ror r3
a3e05dc0:	69766153 	ldmvsdb	r6!, {r0, r1, r4, r6, r8, sp, lr}^
a3e05dc4:	6b20676e 	blvs	a461fb84 <tftpTimeout+0x81808c>
a3e05dc8:	656e7265 	strvsb	r7, [lr, -#613]!
a3e05dcc:	6f74206c 	swivs	0x0074206c
a3e05dd0:	616c6620 	cmnvs	ip, r0, lsr #12
a3e05dd4:	2e2e6873 	mcrcs	8, 1, r6, cr14, cr3, {3}
a3e05dd8:	00000a2e 	andeq	r0, r0, lr, lsr #20
a3e05ddc:	69766153 	ldmvsdb	r6!, {r0, r1, r4, r6, r8, sp, lr}^
a3e05de0:	7220676e 	eorvc	r6, r0, #28835840	; 0x1b80000
a3e05de4:	69646d61 	stmvsdb	r4!, {r0, r5, r6, r8, sl, fp, sp, lr}^
a3e05de8:	74206b73 	strvct	r6, [r0], -#2931
a3e05dec:	6c66206f 	stcvsl	0, cr2, [r6], -#444
a3e05df0:	2e687361 	cdpcs	3, 6, cr7, cr8, cr1, {3}
a3e05df4:	000a2e2e 	andeq	r2, sl, lr, lsr #28
a3e05df8:	69766153 	ldmvsdb	r6!, {r0, r1, r4, r6, r8, sp, lr}^
a3e05dfc:	6220676e 	eorvs	r6, r0, #28835840	; 0x1b80000
a3e05e00:	6c746f6f 	ldcvsl	15, cr6, [r4], -#444
a3e05e04:	6564616f 	strvsb	r6, [r4, -#367]!
a3e05e08:	6f742072 	swivs	0x00742072
a3e05e0c:	616c6620 	cmnvs	ip, r0, lsr #12
a3e05e10:	2e2e6873 	mcrcs	8, 1, r6, cr14, cr3, {3}
a3e05e14:	00000a2e 	andeq	r0, r0, lr, lsr #20
a3e05e18:	69766153 	ldmvsdb	r6!, {r0, r1, r4, r6, r8, sp, lr}^
a3e05e1c:	7520676e 	strvc	r6, [r0, -#1902]!
a3e05e20:	69207273 	stmvsdb	r0!, {r0, r1, r4, r5, r6, r9, ip, sp, lr}
a3e05e24:	6567616d 	strvsb	r6, [r7, -#365]!
a3e05e28:	206f7420 	rsbcs	r7, pc, r0, lsr #8
a3e05e2c:	73616c66 	cmnvc	r1, #26112	; 0x6600
a3e05e30:	2e2e2e68 	cdpcs	14, 2, cr2, cr14, cr8, {3}
a3e05e34:	0000000a 	andeq	r0, r0, sl
a3e05e38:	61724509 	cmnvs	r2, r9, lsl #10
a3e05e3c:	20646573 	rsbcs	r6, r4, r3, ror r5
a3e05e40:	636f6c62 	cmnvs	pc, #25088	; 0x6200
a3e05e44:	6172206b 	cmnvs	r2, fp, rrx
a3e05e48:	0965676e 	stmeqdb	r5!, {r1, r2, r3, r5, r6, r8, r9, sl, sp, lr}^
a3e05e4c:	7830203a 	ldmvcda	r0!, {r1, r3, r4, r5, sp}
a3e05e50:	6c383025 	ldcvs	0, cr3, [r8], -#148
a3e05e54:	207e2078 	rsbcss	r2, lr, r8, ror r0
a3e05e58:	30257830 	eorcc	r7, r5, r0, lsr r8
a3e05e5c:	0a786c38 	beq	a5c20f44 <tftpTimeout+0x1e1944c>
a3e05e60:	00000000 	andeq	r0, r0, r0
a3e05e64:	6e6f4409 	cdpvs	4, 6, cr4, cr15, cr9, {0}
a3e05e68:	0a0a2e65 	beq	a4091804 <tftpTimeout+0x289d0c>
a3e05e6c:	00000000 	andeq	r0, r0, r0
a3e05e70:	74697257 	strvcbt	r7, [r9], -#599
a3e05e74:	6f742065 	swivs	0x00742065
a3e05e78:	616c6620 	cmnvs	ip, r0, lsr #12
a3e05e7c:	2e2e6873 	mcrcs	8, 1, r6, cr14, cr3, {3}
a3e05e80:	00000a2e 	andeq	r0, r0, lr, lsr #20
a3e05e84:	72754309 	rsbvcs	r4, r5, #603979776	; 0x24000000
a3e05e88:	746e6572 	strvcbt	r6, [lr], -#1394
a3e05e8c:	6f6c6220 	swivs	0x006c6220
a3e05e90:	61206b63 	teqvs	r0, r3, ror #22
a3e05e94:	65726464 	ldrvsb	r6, [r2, -#1124]!
a3e05e98:	3a097373 	bcc	a4062c6c <tftpTimeout+0x25b174>
a3e05e9c:	25783020 	ldrcsb	r3, [r8, -#32]!
a3e05ea0:	786c3830 	stmvcda	ip!, {r4, r5, fp, ip, sp}^
a3e05ea4:	00000000 	andeq	r0, r0, r0
a3e05ea8:	6f44090a 	swivs	0x0044090a
a3e05eac:	0a2e656e 	beq	a499f46c <tftpTimeout+0xb97974>
a3e05eb0:	00000000 	andeq	r0, r0, r0
a3e05eb4:	7245090a 	subvc	r0, r5, #163840	; 0x28000
a3e05eb8:	20657361 	rsbcs	r7, r5, r1, ror #6
a3e05ebc:	6d6d6f43 	stcvsl	15, cr6, [sp, -#268]!
a3e05ec0:	20646e61 	rsbcs	r6, r4, r1, ror #28
a3e05ec4:	6465656e 	strvsbt	r6, [r5], -#1390
a3e05ec8:	50206120 	eorpl	r6, r0, r0, lsr #2
a3e05ecc:	7469736f 	strvcbt	r7, [r9], -#879
a3e05ed0:	206e6f69 	rsbcs	r6, lr, r9, ror #30
a3e05ed4:	7865090a 	stmvcda	r5!, {r1, r3, r8, fp}^
a3e05ed8:	61726529 	cmnvs	r2, r9, lsr #10
a3e05edc:	7b206573 	blvc	a461f4b0 <tftpTimeout+0x8179b8>
a3e05ee0:	746f6f62 	strvcbt	r6, [pc], #f62	; a3e05ee8 <version+0x658>
a3e05ee4:	6b2f7265 	blvs	a49e2880 <tftpTimeout+0xbdad88>
a3e05ee8:	656e7265 	strvsb	r7, [lr, -#613]!
a3e05eec:	61722f6c 	cmnvs	r2, ip, ror #30
a3e05ef0:	7369646d 	cmnvc	r9, #1828716544	; 0x6d000000
a3e05ef4:	73752f6b 	cmnvc	r5, #428	; 0x1ac
a3e05ef8:	000a7d72 	andeq	r7, sl, r2, ror sp
a3e05efc:	72646461 	rsbvc	r6, r4, #1627389952	; 0x61000000
a3e05f00:	20737365 	rsbcss	r7, r3, r5, ror #6
a3e05f04:	6e207369 	cdpvs	3, 2, cr7, cr0, cr9, {3}
a3e05f08:	6620746f 	strvst	r7, [r0], -pc, ror #8
a3e05f0c:	6873616c 	ldmvsda	r3!, {r2, r3, r5, r6, r8, sp, lr}^
a3e05f10:	6f6c6220 	swivs	0x006c6220
a3e05f14:	62206b63 	eorvs	r6, r0, #101376	; 0x18c00
a3e05f18:	2e657361 	cdpcs	3, 6, cr7, cr5, cr1, {3}
a3e05f1c:	0000000a 	andeq	r0, r0, sl
a3e05f20:	6e6f4409 	cdpvs	4, 6, cr4, cr15, cr9, {0}
a3e05f24:	000a2e65 	andeq	r2, sl, r5, ror #28
a3e05f28:	202a090a 	eorcs	r0, sl, sl, lsl #18
a3e05f2c:	20656854 	rsbcs	r6, r5, r4, asr r8
a3e05f30:	6c6c6f66 	stcvsl	15, cr6, [ip], -#408
a3e05f34:	6e69776f 	cdpvs	7, 6, cr7, cr9, cr15, {3}
a3e05f38:	6f632067 	swivs	0x00632067
a3e05f3c:	6e616d6d 	cdpvs	13, 6, cr6, cr1, cr13, {3}
a3e05f40:	61207364 	teqvs	r0, r4, ror #6
a3e05f44:	73206572 	teqvc	r0, #478150656	; 0x1c800000
a3e05f48:	6f707075 	swivs	0x00707075
a3e05f4c:	64657472 	strvsbt	r7, [r5], -#1138
a3e05f50:	000a2a20 	andeq	r2, sl, r0, lsr #20
a3e05f54:	2e312009 	cdpcs	0, 3, cr2, cr1, cr9, {0}
a3e05f58:	6f6f6220 	swivs	0x006f6220
a3e05f5c:	3a092074 	bcc	a404e134 <tftpTimeout+0x24663c>
a3e05f60:	6f6f4220 	swivs	0x006f4220
a3e05f64:	68742074 	ldmvsda	r4!, {r2, r4, r5, r6, sp}^
a3e05f68:	656b2065 	strvsb	r2, [fp, -#101]!
a3e05f6c:	6c656e72 	stcvsl	14, cr6, [r5], -#456
a3e05f70:	20746120 	rsbcss	r6, r4, r0, lsr #2
a3e05f74:	0a6d6172 	beq	a595e544 <tftpTimeout+0x1b56a4c>
a3e05f78:	00000000 	andeq	r0, r0, r0
a3e05f7c:	2e322009 	cdpcs	0, 3, cr2, cr2, cr9, {0}
a3e05f80:	73657220 	cmnvc	r5, #2	; 0x2
a3e05f84:	3a097465 	bcc	a4063120 <tftpTimeout+0x25b628>
a3e05f88:	73655220 	cmnvc	r5, #2	; 0x2
a3e05f8c:	74726174 	ldrvcbt	r6, [r2], -#372
a3e05f90:	69687420 	stmvsdb	r8!, {r5, sl, ip, sp, lr}^
a3e05f94:	6f622073 	swivs	0x00622073
a3e05f98:	6f6c746f 	swivs	0x006c746f
a3e05f9c:	72656461 	rsbvc	r6, r5, #1627389952	; 0x61000000
a3e05fa0:	20746120 	rsbcss	r6, r4, r0, lsr #2
a3e05fa4:	0a6d6f72 	beq	a5961d74 <tftpTimeout+0x1b5a27c>
a3e05fa8:	00000000 	andeq	r0, r0, r0
a3e05fac:	2e332009 	cdpcs	0, 3, cr2, cr3, cr9, {0}
a3e05fb0:	6f6f6220 	swivs	0x006f6220
a3e05fb4:	3a097074 	bcc	a406218c <tftpTimeout+0x25a694>
a3e05fb8:	74654720 	strvcbt	r4, [r5], -#1824
a3e05fbc:	20504920 	subcss	r4, r0, r0, lsr #18
a3e05fc0:	62207962 	eorvs	r7, r0, #1605632	; 0x188000
a3e05fc4:	70746f6f 	rsbvcs	r6, r4, pc, ror #30
a3e05fc8:	0000000a 	andeq	r0, r0, sl
a3e05fcc:	2e342009 	cdpcs	0, 3, cr2, cr4, cr9, {0}
a3e05fd0:	74657320 	strvcbt	r7, [r5], -#800
a3e05fd4:	3a097069 	bcc	a4062180 <tftpTimeout+0x25a688>
a3e05fd8:	74655320 	strvcbt	r5, [r5], -#800
a3e05fdc:	20504920 	subcss	r4, r0, r0, lsr #18
a3e05fe0:	68206e6f 	stmvsda	r0!, {r0, r1, r2, r3, r5, r6, r9, sl, fp, sp, lr}
a3e05fe4:	2074736f 	rsbcss	r7, r4, pc, ror #6
a3e05fe8:	20646e61 	rsbcs	r6, r4, r1, ror #28
a3e05fec:	65696c63 	strvsb	r6, [r9, -#3171]!
a3e05ff0:	000a746e 	andeq	r7, sl, lr, ror #8
a3e05ff4:	2e352009 	cdpcs	0, 3, cr2, cr5, cr9, {0}
a3e05ff8:	63616d20 	cmnvs	r1, #2048	; 0x800
a3e05ffc:	74697277 	strvcbt	r7, [r9], -#631
a3e06000:	203a0965 	eorcss	r0, sl, r5, ror #18
a3e06004:	20746553 	rsbcss	r6, r4, r3, asr r5
a3e06008:	2043414d 	subcs	r4, r3, sp, asr #2
a3e0600c:	72646461 	rsbvc	r6, r4, #1627389952	; 0x61000000
a3e06010:	20737365 	rsbcss	r7, r3, r5, ror #6
a3e06014:	63206e6f 	teqvs	r0, #1776	; 0x6f0
a3e06018:	6e65696c 	cdpvs	9, 6, cr6, cr5, cr12, {3}
a3e0601c:	00000a74 	andeq	r0, r0, r4, ror sl
a3e06020:	2e362009 	cdpcs	0, 3, cr2, cr6, cr9, {0}
a3e06024:	74667420 	strvcbt	r7, [r6], -#1056
a3e06028:	09202070 	stmeqdb	r0!, {r4, r5, r6, sp}
a3e0602c:	6f44203a 	swivs	0x0044203a
a3e06030:	6f6c6e77 	swivs	0x006c6e77
a3e06034:	69206461 	stmvsdb	r0!, {r0, r5, r6, sl, sp, lr}
a3e06038:	6567616d 	strvsb	r6, [r7, -#365]!
a3e0603c:	79622073 	stmvcdb	r2!, {r0, r1, r4, r5, r6, sp}^
a3e06040:	74667420 	strvcbt	r7, [r6], -#1056
a3e06044:	00000a70 	andeq	r0, r0, r0, ror sl
a3e06048:	2e372009 	cdpcs	0, 3, cr2, cr7, cr9, {0}
a3e0604c:	776f6420 	strvcb	r6, [pc, -r0, lsr #8]!
a3e06050:	616f6c6e 	cmnvs	pc, lr, ror #24
a3e06054:	203a0964 	eorcss	r0, sl, r4, ror #18
a3e06058:	6e776f44 	cdpvs	15, 7, cr6, cr7, cr4, {2}
a3e0605c:	64616f6c 	strvsbt	r6, [r1], -#3948
a3e06060:	616d6920 	cmnvs	sp, r0, lsr #18
a3e06064:	20736567 	rsbcss	r6, r3, r7, ror #10
a3e06068:	75207962 	strvc	r7, [r0, -#2402]!
a3e0606c:	636e6575 	cmnvs	lr, #490733568	; 0x1d400000
a3e06070:	0a65646f 	beq	a575f234 <tftpTimeout+0x195773c>
a3e06074:	00000000 	andeq	r0, r0, r0
a3e06078:	2e382009 	cdpcs	0, 3, cr2, cr8, cr9, {0}
a3e0607c:	61657220 	cmnvs	r5, r0, lsr #4
a3e06080:	09202064 	stmeqdb	r0!, {r2, r5, r6, sp}
a3e06084:	6552203a 	ldrvsb	r2, [r2, -#58]
a3e06088:	76206461 	strvct	r6, [r0], -r1, ror #8
a3e0608c:	65756c61 	ldrvsb	r6, [r5, -#3169]!
a3e06090:	206e6f20 	rsbcs	r6, lr, r0, lsr #30
a3e06094:	70732061 	rsbvcs	r2, r3, r1, rrx
a3e06098:	66696365 	strvsbt	r6, [r9], -r5, ror #6
a3e0609c:	61206369 	teqvs	r0, r9, ror #6
a3e060a0:	65726464 	ldrvsb	r6, [r2, -#1124]!
a3e060a4:	000a7373 	andeq	r7, sl, r3, ror r3
a3e060a8:	2e392009 	cdpcs	0, 3, cr2, cr9, cr9, {0}
a3e060ac:	69727720 	ldmvsdb	r2!, {r5, r8, r9, sl, ip, sp, lr}^
a3e060b0:	09206574 	stmeqdb	r0!, {r2, r4, r5, r6, r8, sl, sp, lr}
a3e060b4:	7257203a 	subvcs	r2, r7, #58	; 0x3a
a3e060b8:	20657469 	rsbcs	r7, r5, r9, ror #8
a3e060bc:	756c6176 	strvcb	r6, [ip, -#374]!
a3e060c0:	6e6f2065 	cdpvs	0, 6, cr2, cr15, cr5, {3}
a3e060c4:	73206120 	teqvc	r0, #8	; 0x8
a3e060c8:	69636570 	stmvsdb	r3!, {r4, r5, r6, r8, sl, sp, lr}^
a3e060cc:	20636966 	rsbcs	r6, r3, r6, ror #18
a3e060d0:	72646461 	rsbvc	r6, r4, #1627389952	; 0x61000000
a3e060d4:	0a737365 	beq	a5ae2e70 <tftpTimeout+0x1cdb378>
a3e060d8:	00000000 	andeq	r0, r0, r0
a3e060dc:	2e303109 	rsfcss	f3, f0, #1.0
a3e060e0:	616c6620 	cmnvs	ip, r0, lsr #12
a3e060e4:	09206873 	stmeqdb	r0!, {r0, r1, r4, r5, r6, fp, sp, lr}
a3e060e8:	7257203a 	subvcs	r2, r7, #58	; 0x3a
a3e060ec:	20657469 	rsbcs	r7, r5, r9, ror #8
a3e060f0:	67616d69 	strvsb	r6, [r1, -r9, ror #26]!
a3e060f4:	74207365 	strvct	r7, [r0], -#869
a3e060f8:	20746168 	rsbcss	r6, r4, r8, ror #2
a3e060fc:	20657261 	rsbcs	r7, r5, r1, ror #4
a3e06100:	76657270 	undefined
a3e06104:	73756f69 	cmnvc	r5, #420	; 0x1a4
a3e06108:	6420796c 	strvst	r7, [r0], -#2412
a3e0610c:	6c6e776f 	stcvsl	7, cr7, [lr], -#444
a3e06110:	6564616f 	strvsb	r6, [r4, -#367]!
a3e06114:	00000a64 	andeq	r0, r0, r4, ror #20
a3e06118:	2e313109 	rsfcss	f3, f1, #1.0
a3e0611c:	61726520 	cmnvs	r2, r0, lsr #10
a3e06120:	3a096573 	bcc	a405f6f4 <tftpTimeout+0x257bfc>
a3e06124:	61724520 	cmnvs	r2, r0, lsr #10
a3e06128:	66206573 	undefined
a3e0612c:	6873616c 	ldmvsda	r3!, {r2, r3, r5, r6, r8, sp, lr}^
a3e06130:	65726120 	ldrvsb	r6, [r2, -#288]!
a3e06134:	000a2061 	andeq	r2, sl, r1, rrx
a3e06138:	2e323109 	rsfcss	f3, f2, #1.0
a3e0613c:	61747320 	cmnvs	r4, r0, lsr #6
a3e06140:	20737574 	rsbcss	r7, r3, r4, ror r5
a3e06144:	50203a09 	eorpl	r3, r0, r9, lsl #20
a3e06148:	746e6972 	strvcbt	r6, [lr], -#2418
a3e0614c:	572f5320 	strpl	r5, [pc, -r0, lsr #6]!
a3e06150:	2f48202c 	swics	0x0048202c
a3e06154:	6e612057 	mcrvs	0, 3, r2, cr1, cr7, {2}
a3e06158:	656e2064 	strvsb	r2, [lr, -#100]!
a3e0615c:	726f7774 	rsbvc	r7, pc, #30408704	; 0x1d00000
a3e06160:	7473206b 	ldrvcbt	r2, [r3], -#107
a3e06164:	73757461 	cmnvc	r5, #1627389952	; 0x61000000
a3e06168:	0000000a 	andeq	r0, r0, sl
a3e0616c:	2e333109 	rsfcss	f3, f3, #1.0
a3e06170:	6c656820 	stcvsl	8, cr6, [r5], -#128
a3e06174:	3a092070 	bcc	a404e33c <tftpTimeout+0x246844>
a3e06178:	69725020 	ldmvsdb	r2!, {r5, ip, lr}^
a3e0617c:	6820746e 	stmvsda	r0!, {r1, r2, r3, r5, r6, sl, ip, sp, lr}
a3e06180:	20706c65 	rsbcss	r6, r0, r5, ror #24
a3e06184:	7373656d 	cmnvc	r3, #457179136	; 0x1b400000
a3e06188:	20656761 	rsbcs	r6, r5, r1, ror #14
a3e0618c:	20726f66 	rsbcss	r6, r2, r6, ror #30
a3e06190:	72657375 	rsbvc	r7, r5, #-738197503	; 0xd4000001
a3e06194:	6f742073 	swivs	0x00742073
a3e06198:	65706f20 	ldrvsb	r6, [r0, -#3872]!
a3e0619c:	65746172 	ldrvsb	r6, [r4, -#370]!
a3e061a0:	69687420 	stmvsdb	r8!, {r5, sl, ip, sp, lr}^
a3e061a4:	72702073 	rsbvcs	r2, r0, #115	; 0x73
a3e061a8:	6172676f 	cmnvs	r2, pc, ror #14
a3e061ac:	00000a6d 	andeq	r0, r0, sp, ror #20
a3e061b0:	2e343109 	rsfcss	f3, f4, #1.0
a3e061b4:	73657420 	cmnvc	r5, #536870912	; 0x20000000
a3e061b8:	3a092074 	bcc	a404e390 <tftpTimeout+0x246898>
a3e061bc:	64644120 	strvsbt	r4, [r4], -#288
a3e061c0:	756f7920 	strvcb	r7, [pc, #fffff6e0]!	; a3e058a8 <version+0x18>
a3e061c4:	6f632072 	swivs	0x00632072
a3e061c8:	69206564 	stmvsdb	r0!, {r2, r5, r6, r8, sl, sp, lr}
a3e061cc:	6874206e 	ldmvsda	r4!, {r1, r2, r3, r5, r6, sp}^
a3e061d0:	66207369 	strvst	r7, [r0], -r9, ror #6
a3e061d4:	74636e75 	strvcbt	r6, [r3], -#3701
a3e061d8:	206e6f69 	rsbcs	r6, lr, r9, ror #30
a3e061dc:	20726f66 	rsbcss	r6, r2, r6, ror #30
a3e061e0:	2c572f53 	mrrccs	15, 5, r2, r7, cr3
a3e061e4:	572f4820 	strpl	r4, [pc, -r0, lsr #16]!
a3e061e8:	73657420 	cmnvc	r5, #536870912	; 0x20000000
a3e061ec:	00000a74 	andeq	r0, r0, r4, ror sl
a3e061f0:	202a090a 	eorcs	r0, sl, sl, lsl #18
a3e061f4:	20657355 	rsbcs	r7, r5, r5, asr r3
a3e061f8:	6c656827 	stcvsl	8, cr6, [r5], -#156
a3e061fc:	6f632070 	swivs	0x00632070
a3e06200:	6e616d6d 	cdpvs	13, 6, cr6, cr1, cr13, {3}
a3e06204:	74202764 	strvct	r2, [r0], -#1892
a3e06208:	6567206f 	strvsb	r2, [r7, -#111]!
a3e0620c:	65682074 	strvsb	r2, [r8, -#116]!
a3e06210:	6f20706c 	swivs	0x0020706c
a3e06214:	2061206e 	rsbcs	r2, r1, lr, rrx
a3e06218:	63657073 	cmnvs	r5, #115	; 0x73
a3e0621c:	63696669 	cmnvs	r9, #110100480	; 0x6900000
a3e06220:	6d6f6320 	stcvsl	3, cr6, [pc, -#128]!
a3e06224:	646e616d 	strvsbt	r6, [lr], -#365
a3e06228:	000a2a20 	andeq	r2, sl, r0, lsr #20
a3e0622c:	202a090a 	eorcs	r0, sl, sl, lsl #18
a3e06230:	706c6548 	rsbvc	r6, ip, r8, asr #10
a3e06234:	726f6620 	rsbvc	r6, pc, #33554432	; 0x2000000
a3e06238:	65687420 	strvsb	r7, [r8, -#1056]!
a3e0623c:	73252720 	teqvc	r5, #8388608	; 0x800000
a3e06240:	0a2a2027 	beq	a488e2e4 <tftpTimeout+0xa867ec>
a3e06244:	00000000 	andeq	r0, r0, r0
a3e06248:	746f6f62 	strvcbt	r6, [pc], #f62	; a3e06250 <version+0x9c0>
a3e0624c:	00000000 	andeq	r0, r0, r0
a3e06250:	6f6f6209 	swivs	0x006f6209
a3e06254:	203a2074 	eorcss	r2, sl, r4, ror r0
a3e06258:	746f6f42 	strvcbt	r6, [pc], #f42	; a3e06260 <version+0x9d0>
a3e0625c:	65687420 	strvsb	r7, [r8, -#1056]!
a3e06260:	72656b20 	rsbvc	r6, r5, #32768	; 0x8000
a3e06264:	206c656e 	rsbcs	r6, ip, lr, ror #10
a3e06268:	72207461 	eorvc	r7, r0, #1627389952	; 0x61000000
a3e0626c:	000a6d61 	andeq	r6, sl, r1, ror #26
a3e06270:	65736572 	ldrvsb	r6, [r3, -#1394]!
a3e06274:	00000074 	andeq	r0, r0, r4, ror r0
a3e06278:	73657209 	cmnvc	r5, #-1879048192	; 0x90000000
a3e0627c:	3a207465 	bcc	a4623418 <tftpTimeout+0x81b920>
a3e06280:	73655220 	cmnvc	r5, #2	; 0x2
a3e06284:	74726174 	ldrvcbt	r6, [r2], -#372
a3e06288:	69687420 	stmvsdb	r8!, {r5, sl, ip, sp, lr}^
a3e0628c:	6f622073 	swivs	0x00622073
a3e06290:	6f6c746f 	swivs	0x006c746f
a3e06294:	72656461 	rsbvc	r6, r5, #1627389952	; 0x61000000
a3e06298:	20746120 	rsbcss	r6, r4, r0, lsr #2
a3e0629c:	0a6d6f72 	beq	a596206c <tftpTimeout+0x1b5a574>
a3e062a0:	00000000 	andeq	r0, r0, r0
a3e062a4:	746f6f62 	strvcbt	r6, [pc], #f62	; a3e062ac <version+0xa1c>
a3e062a8:	00000070 	andeq	r0, r0, r0, ror r0
a3e062ac:	6f6f6209 	swivs	0x006f6209
a3e062b0:	3a207074 	bcc	a4622488 <tftpTimeout+0x81a990>
a3e062b4:	74654720 	strvcbt	r4, [r5], -#1824
a3e062b8:	20504920 	subcss	r4, r0, r0, lsr #18
a3e062bc:	62207962 	eorvs	r7, r0, #1605632	; 0x188000
a3e062c0:	70746f6f 	rsbvcs	r6, r4, pc, ror #30
a3e062c4:	0000000a 	andeq	r0, r0, sl
a3e062c8:	69746573 	ldmvsdb	r4!, {r0, r1, r4, r5, r6, r8, sl, sp, lr}^
a3e062cc:	00000070 	andeq	r0, r0, r0, ror r0
a3e062d0:	74657309 	strvcbt	r7, [r5], -#777
a3e062d4:	5b207069 	blpl	a4622480 <tftpTimeout+0x81a988>
a3e062d8:	74736f68 	ldrvcbt	r6, [r3], -#3944
a3e062dc:	5d706920 	ldcpll	9, cr6, [r0, -#128]!
a3e062e0:	6c635b20 	stcvsl	11, cr5, [r3], -#128
a3e062e4:	746e6569 	strvcbt	r6, [lr], -#1385
a3e062e8:	5d706920 	ldcpll	9, cr6, [r0, -#128]!
a3e062ec:	53203a20 	teqpl	r0, #131072	; 0x20000
a3e062f0:	49207465 	stmmidb	r0!, {r0, r2, r5, r6, sl, ip, sp, lr}
a3e062f4:	6e6f2050 	mcrvs	0, 3, r2, cr15, cr0, {2}
a3e062f8:	736f6820 	cmnvc	pc, #2097152	; 0x200000
a3e062fc:	6e612074 	mcrvs	0, 3, r2, cr1, cr4, {3}
a3e06300:	6c632064 	stcvsl	0, cr2, [r3], -#400
a3e06304:	746e6569 	strvcbt	r6, [lr], -#1385
a3e06308:	00000a0a 	andeq	r0, r0, sl, lsl #20
a3e0630c:	41202a09 	teqmi	r0, r9, lsl #20
a3e06310:	6d756772 	ldcvsl	7, cr6, [r5, -#456]!
a3e06314:	73746e65 	cmnvc	r4, #1616	; 0x650
a3e06318:	70786520 	rsbvcs	r6, r8, r0, lsr #10
a3e0631c:	6e69616c 	powvsez	f6, f1, #4.0
a3e06320:	000a2a20 	andeq	r2, sl, r0, lsr #20
a3e06324:	202e3109 	eorcs	r3, lr, r9, lsl #2
a3e06328:	74736f68 	ldrvcbt	r6, [r3], -#3944
a3e0632c:	20706920 	rsbcss	r6, r0, r0, lsr #18
a3e06330:	6f48203a 	swivs	0x0048203a
a3e06334:	70207473 	eorvc	r7, r0, r3, ror r4
a3e06338:	50492063 	subpl	r2, r9, r3, rrx
a3e0633c:	64646120 	strvsbt	r6, [r4], -#288
a3e06340:	73736572 	cmnvc	r3, #478150656	; 0x1c800000
a3e06344:	206e6920 	rsbcs	r6, lr, r0, lsr #18
a3e06348:	6e697375 	mcrvs	3, 3, r7, cr9, cr5, {3}
a3e0634c:	00000a67 	andeq	r0, r0, r7, ror #20
a3e06350:	202e3209 	eorcs	r3, lr, r9, lsl #4
a3e06354:	65696c63 	strvsb	r6, [r9, -#3171]!
a3e06358:	6920746e 	stmvsdb	r0!, {r1, r2, r3, r5, r6, sl, ip, sp, lr}
a3e0635c:	203a2070 	eorcss	r2, sl, r0, ror r0
a3e06360:	72616f42 	rsbvc	r6, r1, #264	; 0x108
a3e06364:	50492064 	subpl	r2, r9, r4, rrx
a3e06368:	64646120 	strvsbt	r6, [r4], -#288
a3e0636c:	73736572 	cmnvc	r3, #478150656	; 0x1c800000
a3e06370:	206f7420 	rsbcs	r7, pc, r0, lsr #8
a3e06374:	0a746573 	beq	a5b1f948 <tftpTimeout+0x1d17e50>
a3e06378:	00000000 	andeq	r0, r0, r0
a3e0637c:	202a090a 	eorcs	r0, sl, sl, lsl #18
a3e06380:	6d617845 	stcvsl	8, cr7, [r1, -#276]!
a3e06384:	20656c70 	rsbcs	r6, r5, r0, ror ip
a3e06388:	20657375 	rsbcs	r7, r5, r5, ror r3
a3e0638c:	00000a2a 	andeq	r0, r0, sl, lsr #20
a3e06390:	202e3109 	eorcs	r3, lr, r9, lsl #2
a3e06394:	69746573 	ldmvsdb	r4!, {r0, r1, r4, r5, r6, r8, sl, sp, lr}^
a3e06398:	39312070 	ldmccdb	r1!, {r4, r5, r6, sp}
a3e0639c:	36312e32 	undefined
a3e063a0:	32312e38 	eorccs	r2, r1, #896	; 0x380
a3e063a4:	30322e33 	eorccs	r2, r2, r3, lsr lr
a3e063a8:	39312030 	ldmccdb	r1!, {r4, r5, sp}
a3e063ac:	36312e32 	undefined
a3e063b0:	32312e38 	eorccs	r2, r1, #896	; 0x380
a3e063b4:	30322e33 	eorccs	r2, r2, r3, lsr lr
a3e063b8:	00000a31 	andeq	r0, r0, r1, lsr sl
a3e063bc:	7763616d 	strvcb	r6, [r3, -sp, ror #2]!
a3e063c0:	65746972 	ldrvsb	r6, [r4, -#2418]!
a3e063c4:	00000000 	andeq	r0, r0, r0
a3e063c8:	63616d09 	cmnvs	r1, #576	; 0x240
a3e063cc:	74697277 	strvcbt	r7, [r9], -#631
a3e063d0:	707b2065 	rsbvcs	r2, fp, r5, rrx
a3e063d4:	732f6972 	teqvc	pc, #1867776	; 0x1c8000
a3e063d8:	207d6365 	rsbcss	r6, sp, r5, ror #6
a3e063dc:	43414d5b 	cmpmi	r1, #5824	; 0x16c0
a3e063e0:	64646120 	strvsbt	r6, [r4], -#288
a3e063e4:	3a205d72 	bcc	a461d9b4 <tftpTimeout+0x815ebc>
a3e063e8:	74655320 	strvcbt	r5, [r5], -#800
a3e063ec:	43414d20 	cmpmi	r1, #2048	; 0x800
a3e063f0:	64646120 	strvsbt	r6, [r4], -#288
a3e063f4:	6e6f2072 	mcrvs	0, 3, r2, cr15, cr2, {3}
a3e063f8:	696c6320 	stmvsdb	ip!, {r5, r8, r9, sp, lr}^
a3e063fc:	0a746e65 	beq	a5b21d98 <tftpTimeout+0x1d1a2a0>
a3e06400:	0000000a 	andeq	r0, r0, sl
a3e06404:	202e3109 	eorcs	r3, lr, r9, lsl #2
a3e06408:	67726174 	undefined
a3e0640c:	63207465 	teqvs	r0, #1694498816	; 0x65000000
a3e06410:	6e65696c 	cdpvs	9, 6, cr6, cr5, cr12, {3}
a3e06414:	203a2074 	eorcss	r2, sl, r4, ror r0
a3e06418:	67726174 	undefined
a3e0641c:	74207465 	strvct	r7, [r0], -#1125
a3e06420:	6863206f 	stmvsda	r3!, {r0, r1, r2, r3, r5, r6, sp}^
a3e06424:	65676e61 	strvsb	r6, [r7, -#3681]!
a3e06428:	43414d20 	cmpmi	r1, #2048	; 0x800
a3e0642c:	0000000a 	andeq	r0, r0, sl
a3e06430:	202e3209 	eorcs	r3, lr, r9, lsl #4
a3e06434:	2043414d 	subcs	r4, r3, sp, asr #2
a3e06438:	72646461 	rsbvc	r6, r4, #1627389952	; 0x61000000
a3e0643c:	20203a20 	eorcs	r3, r0, r0, lsr #20
a3e06440:	65696c43 	strvsb	r6, [r9, -#3139]!
a3e06444:	4d20746e 	stcmi	4, cr7, [r0, -#440]!
a3e06448:	61204341 	teqvs	r0, r1, asr #6
a3e0644c:	65726464 	ldrvsb	r6, [r2, -#1124]!
a3e06450:	69207373 	stmvsdb	r0!, {r0, r1, r4, r5, r6, r8, r9, ip, sp, lr}
a3e06454:	7375206e 	cmnvc	r5, #110	; 0x6e
a3e06458:	0a676e69 	beq	a57e1e04 <tftpTimeout+0x19da30c>
a3e0645c:	00000000 	andeq	r0, r0, r0
a3e06460:	202e3109 	eorcs	r3, lr, r9, lsl #2
a3e06464:	7763616d 	strvcb	r6, [r3, -sp, ror #2]!
a3e06468:	65746972 	ldrvsb	r6, [r4, -#2418]!
a3e0646c:	69727020 	ldmvsdb	r2!, {r5, ip, sp, lr}^
a3e06470:	30303020 	eorccs	r3, r0, r0, lsr #32
a3e06474:	30386162 	eorccs	r6, r8, r2, ror #2
a3e06478:	30303030 	eorccs	r3, r0, r0, lsr r0
a3e0647c:	00000a31 	andeq	r0, r0, r1, lsr sl
a3e06480:	70746674 	rsbvcs	r6, r4, r4, ror r6
a3e06484:	00000000 	andeq	r0, r0, r0
a3e06488:	74667409 	strvcbt	r7, [r6], -#1033
a3e0648c:	665b2070 	undefined
a3e06490:	5d656c69 	stcpll	12, cr6, [r5, -#420]!
a3e06494:	6f705b20 	swivs	0x00705b20
a3e06498:	69746973 	ldmvsdb	r4!, {r0, r1, r4, r5, r6, r8, fp, sp, lr}^
a3e0649c:	205d6e6f 	subcss	r6, sp, pc, ror #28
a3e064a0:	6f44203a 	swivs	0x0044203a
a3e064a4:	6f6c6e77 	swivs	0x006c6e77
a3e064a8:	69206461 	stmvsdb	r0!, {r0, r5, r6, sl, sp, lr}
a3e064ac:	6567616d 	strvsb	r6, [r7, -#365]!
a3e064b0:	79622073 	stmvcdb	r2!, {r0, r1, r4, r5, r6, sp}^
a3e064b4:	74667420 	strvcbt	r7, [r6], -#1056
a3e064b8:	000a0a70 	andeq	r0, sl, r0, ror sl
a3e064bc:	202e3109 	eorcs	r3, lr, r9, lsl #2
a3e064c0:	656c6966 	strvsb	r6, [ip, -#2406]!
a3e064c4:	46203a20 	strmit	r3, [r0], -r0, lsr #20
a3e064c8:	20656c69 	rsbcs	r6, r5, r9, ror #24
a3e064cc:	656d616e 	strvsb	r6, [sp, -#366]!
a3e064d0:	206e6920 	rsbcs	r6, lr, r0, lsr #18
a3e064d4:	70746674 	rsbvcs	r6, r4, r4, ror r6
a3e064d8:	72657320 	rsbvc	r7, r5, #-2147483648	; 0x80000000
a3e064dc:	65636976 	strvsb	r6, [r3, -#2422]!
a3e064e0:	72696420 	rsbvc	r6, r9, #536870912	; 0x20000000
a3e064e4:	6f746365 	swivs	0x00746365
a3e064e8:	000a7972 	andeq	r7, sl, r2, ror r9
a3e064ec:	202e3209 	eorcs	r3, lr, r9, lsl #4
a3e064f0:	69736f70 	ldmvsdb	r3!, {r4, r5, r6, r8, r9, sl, fp, sp, lr}^
a3e064f4:	6e6f6974 	mcrvs	9, 3, r6, cr15, cr4, {3}
a3e064f8:	6f627b20 	swivs	0x00627b20
a3e064fc:	7265746f 	rsbvc	r7, r5, #1862270976	; 0x6f000000
a3e06500:	72656b2f 	rsbvc	r6, r5, #48128	; 0xbc00
a3e06504:	2f6c656e 	swics	0x006c656e
a3e06508:	646d6172 	strvsbt	r6, [sp], -#370
a3e0650c:	2f6b7369 	swics	0x006b7369
a3e06510:	7d727375 	ldcvcl	3, cr7, [r2, -#468]!
a3e06514:	53203a20 	teqpl	r0, #131072	; 0x20000
a3e06518:	6e697661 	cdpvs	6, 6, cr7, cr9, cr1, {3}
a3e0651c:	6f702067 	swivs	0x00702067
a3e06520:	69746973 	ldmvsdb	r4!, {r0, r1, r4, r5, r6, r8, fp, sp, lr}^
a3e06524:	61206e6f 	teqvs	r0, pc, ror #28
a3e06528:	61722074 	cmnvs	r2, r4, ror r0
a3e0652c:	00000a6d 	andeq	r0, r0, sp, ror #20
a3e06530:	202e3109 	eorcs	r3, lr, r9, lsl #2
a3e06534:	70746674 	rsbvcs	r6, r4, r4, ror r6
a3e06538:	6d497a20 	stcvsl	10, cr7, [r9, -#128]
a3e0653c:	20656761 	rsbcs	r6, r5, r1, ror #14
a3e06540:	6e72656b 	cdpvs	5, 7, cr6, cr2, cr11, {3}
a3e06544:	000a6c65 	andeq	r6, sl, r5, ror #24
a3e06548:	6e776f64 	cdpvs	15, 7, cr6, cr7, cr4, {3}
a3e0654c:	64616f6c 	strvsbt	r6, [r1], -#3948
a3e06550:	00000000 	andeq	r0, r0, r0
a3e06554:	776f6409 	strvcb	r6, [pc, -r9, lsl #8]!
a3e06558:	616f6c6e 	cmnvs	pc, lr, ror #24
a3e0655c:	705b2064 	subvcs	r2, fp, r4, rrx
a3e06560:	7469736f 	strvcbt	r7, [r9], -#879
a3e06564:	5d6e6f69 	stcpll	15, cr6, [lr, -#420]!
a3e06568:	44203a20 	strmit	r3, [r0], -#2592
a3e0656c:	6c6e776f 	stcvsl	7, cr7, [lr], -#444
a3e06570:	2064616f 	rsbcs	r6, r4, pc, ror #2
a3e06574:	67616d69 	strvsb	r6, [r1, -r9, ror #26]!
a3e06578:	62207365 	eorvs	r7, r0, #-1811939327	; 0x94000001
a3e0657c:	75752079 	ldrvcb	r2, [r5, -#121]!
a3e06580:	6f636e65 	swivs	0x00636e65
a3e06584:	0a0a6564 	beq	a409fb1c <tftpTimeout+0x298024>
a3e06588:	00000000 	andeq	r0, r0, r0
a3e0658c:	202e3109 	eorcs	r3, lr, r9, lsl #2
a3e06590:	69736f70 	ldmvsdb	r3!, {r4, r5, r6, r8, r9, sl, fp, sp, lr}^
a3e06594:	6e6f6974 	mcrvs	9, 3, r6, cr15, cr4, {3}
a3e06598:	6f627b20 	swivs	0x00627b20
a3e0659c:	7265746f 	rsbvc	r7, r5, #1862270976	; 0x6f000000
a3e065a0:	72656b2f 	rsbvc	r6, r5, #48128	; 0xbc00
a3e065a4:	2f6c656e 	swics	0x006c656e
a3e065a8:	646d6172 	strvsbt	r6, [sp], -#370
a3e065ac:	2f6b7369 	swics	0x006b7369
a3e065b0:	7d727375 	ldcvcl	3, cr7, [r2, -#468]!
a3e065b4:	53203a20 	teqpl	r0, #131072	; 0x20000
a3e065b8:	6e697661 	cdpvs	6, 6, cr7, cr9, cr1, {3}
a3e065bc:	6f702067 	swivs	0x00702067
a3e065c0:	69746973 	ldmvsdb	r4!, {r0, r1, r4, r5, r6, r8, fp, sp, lr}^
a3e065c4:	61206e6f 	teqvs	r0, pc, ror #28
a3e065c8:	61722074 	cmnvs	r2, r4, ror r0
a3e065cc:	00000a6d 	andeq	r0, r0, sp, ror #20
a3e065d0:	202e3109 	eorcs	r3, lr, r9, lsl #2
a3e065d4:	696c633c 	stmvsdb	ip!, {r2, r3, r4, r5, r8, r9, sp, lr}^
a3e065d8:	3e746e65 	cdpcc	14, 7, cr6, cr4, cr5, {3}
a3e065dc:	776f6420 	strvcb	r6, [pc, -r0, lsr #8]!
a3e065e0:	616f6c6e 	cmnvs	pc, lr, ror #24
a3e065e4:	656b2064 	strvsb	r2, [fp, -#100]!
a3e065e8:	6c656e72 	stcvsl	14, cr6, [r5], -#456
a3e065ec:	0000000a 	andeq	r0, r0, sl
a3e065f0:	20202009 	eorcs	r2, r0, r9
a3e065f4:	736f683c 	cmnvc	pc, #3932160	; 0x3c0000
a3e065f8:	75203e74 	strvc	r3, [r0, -#3700]!
a3e065fc:	636e6575 	cmnvs	lr, #490733568	; 0x1d400000
a3e06600:	2065646f 	rsbcs	r6, r5, pc, ror #8
a3e06604:	616d497a 	cmnvs	sp, sl, ror r9
a3e06608:	7a206567 	bvc	a461fbac <tftpTimeout+0x8180b4>
a3e0660c:	67616d49 	strvsb	r6, [r1, -r9, asr #26]!
a3e06610:	2f3e2065 	swics	0x003e2065
a3e06614:	2f766564 	swics	0x00766564
a3e06618:	53797474 	cmnpl	r9, #1946157056	; 0x74000000
a3e0661c:	00000a30 	andeq	r0, r0, r0, lsr sl
a3e06620:	64616572 	strvsbt	r6, [r1], -#1394
a3e06624:	00000000 	andeq	r0, r0, r0
a3e06628:	61657209 	cmnvs	r5, r9, lsl #4
a3e0662c:	627b2064 	rsbvss	r2, fp, #100	; 0x64
a3e06630:	31622f38 	cmncc	r2, r8, lsr pc
a3e06634:	33622f36 	cmncc	r2, #216	; 0xd8
a3e06638:	5b207d32 	blpl	a4625b08 <tftpTimeout+0x81e010>
a3e0663c:	72646461 	rsbvc	r6, r4, #1627389952	; 0x61000000
a3e06640:	5d737365 	ldcpll	3, cr7, [r3, -#404]!
a3e06644:	656c5b20 	strvsb	r5, [ip, -#2848]!
a3e06648:	3a205d6e 	bcc	a461dc08 <tftpTimeout+0x816110>
a3e0664c:	61655220 	cmnvs	r5, r0, lsr #4
a3e06650:	61762064 	cmnvs	r6, r4, rrx
a3e06654:	2065756c 	rsbcs	r7, r5, ip, ror #10
a3e06658:	61206e6f 	teqvs	r0, pc, ror #28
a3e0665c:	65707320 	ldrvsb	r7, [r0, -#800]!
a3e06660:	69666963 	stmvsdb	r6!, {r0, r1, r5, r6, r8, fp, sp, lr}^
a3e06664:	64612063 	strvsbt	r2, [r1], -#99
a3e06668:	73657264 	cmnvc	r5, #1073741830	; 0x40000006
a3e0666c:	000a0a73 	andeq	r0, sl, r3, ror sl
a3e06670:	202e3109 	eorcs	r3, lr, r9, lsl #2
a3e06674:	20746962 	rsbcss	r6, r4, r2, ror #18
a3e06678:	6572203a 	ldrvsb	r2, [r2, -#58]!
a3e0667c:	62206461 	eorvs	r6, r0, #1627389952	; 0x61000000
a3e06680:	6e207469 	cdpvs	4, 2, cr7, cr0, cr9, {3}
a3e06684:	65626d75 	strvsb	r6, [r2, -#3445]!
a3e06688:	65702072 	ldrvsb	r2, [r0, -#114]!
a3e0668c:	78652072 	stmvcda	r5!, {r1, r4, r5, r6, sp}^
a3e06690:	65747563 	ldrvsb	r7, [r4, -#1379]!
a3e06694:	0000000a 	andeq	r0, r0, sl
a3e06698:	202e3209 	eorcs	r3, lr, r9, lsl #4
a3e0669c:	72646461 	rsbvc	r6, r4, #1627389952	; 0x61000000
a3e066a0:	20737365 	rsbcss	r7, r3, r5, ror #6
a3e066a4:	7053203a 	subvcs	r2, r3, sl, lsr r0
a3e066a8:	66696365 	strvsbt	r6, [r9], -r5, ror #6
a3e066ac:	61206369 	teqvs	r0, r9, ror #6
a3e066b0:	65726464 	ldrvsb	r6, [r2, -#1124]!
a3e066b4:	74207373 	strvct	r7, [r0], -#883
a3e066b8:	6572206f 	ldrvsb	r2, [r2, -#111]!
a3e066bc:	000a6461 	andeq	r6, sl, r1, ror #8
a3e066c0:	202e3309 	eorcs	r3, lr, r9, lsl #6
a3e066c4:	206e656c 	rsbcs	r6, lr, ip, ror #10
a3e066c8:	656c203a 	strvsb	r2, [ip, -#58]!
a3e066cc:	6874676e 	ldmvsda	r4!, {r1, r2, r3, r5, r6, r8, r9, sl, sp, lr}^
a3e066d0:	206f7420 	rsbcs	r7, pc, r0, lsr #8
a3e066d4:	64616572 	strvsbt	r6, [r1], -#1394
a3e066d8:	6564202c 	strvsb	r2, [r4, -#44]!
a3e066dc:	6c756166 	ldfvse	f6, [r5], -#408
a3e066e0:	73692074 	cmnvc	r9, #116	; 0x74
a3e066e4:	78302720 	ldmvcda	r0!, {r5, r8, r9, sl, sp}
a3e066e8:	000a2731 	andeq	r2, sl, r1, lsr r7
a3e066ec:	202e3109 	eorcs	r3, lr, r9, lsl #2
a3e066f0:	64616572 	strvsbt	r6, [r1], -#1394
a3e066f4:	32336220 	eorccs	r6, r3, #2	; 0x2
a3e066f8:	34783020 	ldrccbt	r3, [r8], -#32
a3e066fc:	30303038 	eorccs	r3, r0, r8, lsr r0
a3e06700:	20303030 	eorcss	r3, r0, r0, lsr r0
a3e06704:	0a617830 	beq	a56647cc <tftpTimeout+0x185ccd4>
a3e06708:	00000000 	andeq	r0, r0, r0
a3e0670c:	202e3209 	eorcs	r3, lr, r9, lsl #4
a3e06710:	64616572 	strvsbt	r6, [r1], -#1394
a3e06714:	20386220 	eorcss	r6, r8, r0, lsr #4
a3e06718:	38347830 	ldmccda	r4!, {r4, r5, fp, ip, sp, lr}
a3e0671c:	30303030 	eorccs	r3, r0, r0, lsr r0
a3e06720:	000a3430 	andeq	r3, sl, r0, lsr r4
a3e06724:	74697277 	strvcbt	r7, [r9], -#631
a3e06728:	00000065 	andeq	r0, r0, r5, rrx
a3e0672c:	69727709 	ldmvsdb	r2!, {r0, r3, r8, r9, sl, ip, sp, lr}^
a3e06730:	7b206574 	blvc	a461fd08 <tftpTimeout+0x818210>
a3e06734:	622f3862 	eorvs	r3, pc, #6422528	; 0x620000
a3e06738:	622f3631 	eorvs	r3, pc, #51380224	; 0x3100000
a3e0673c:	207d3233 	rsbcss	r3, sp, r3, lsr r2
a3e06740:	6464615b 	strvsbt	r6, [r4], -#347
a3e06744:	73736572 	cmnvc	r3, #478150656	; 0x1c800000
a3e06748:	765b205d 	undefined
a3e0674c:	65756c61 	ldrvsb	r6, [r5, -#3169]!
a3e06750:	203a205d 	eorcss	r2, sl, sp, asr r0
a3e06754:	74697257 	strvcbt	r7, [r9], -#599
a3e06758:	61762065 	cmnvs	r6, r5, rrx
a3e0675c:	2065756c 	rsbcs	r7, r5, ip, ror #10
a3e06760:	61206e6f 	teqvs	r0, pc, ror #28
a3e06764:	65707320 	ldrvsb	r7, [r0, -#800]!
a3e06768:	69666963 	stmvsdb	r6!, {r0, r1, r5, r6, r8, fp, sp, lr}^
a3e0676c:	64612063 	strvsbt	r2, [r1], -#99
a3e06770:	73657264 	cmnvc	r5, #1073741830	; 0x40000006
a3e06774:	000a0a73 	andeq	r0, sl, r3, ror sl
a3e06778:	202e3209 	eorcs	r3, lr, r9, lsl #4
a3e0677c:	72646461 	rsbvc	r6, r4, #1627389952	; 0x61000000
a3e06780:	20737365 	rsbcss	r7, r3, r5, ror #6
a3e06784:	7053203a 	subvcs	r2, r3, sl, lsr r0
a3e06788:	66696365 	strvsbt	r6, [r9], -r5, ror #6
a3e0678c:	61206369 	teqvs	r0, r9, ror #6
a3e06790:	65726464 	ldrvsb	r6, [r2, -#1124]!
a3e06794:	74207373 	strvct	r7, [r0], -#883
a3e06798:	7277206f 	rsbvcs	r2, r7, #111	; 0x6f
a3e0679c:	0a657469 	beq	a5763948 <tftpTimeout+0x195be50>
a3e067a0:	00000000 	andeq	r0, r0, r0
a3e067a4:	202e3309 	eorcs	r3, lr, r9, lsl #6
a3e067a8:	756c6176 	strvcb	r6, [ip, -#374]!
a3e067ac:	203a2065 	eorcss	r2, sl, r5, rrx
a3e067b0:	756c6156 	strvcb	r6, [ip, -#342]!
a3e067b4:	6f742065 	swivs	0x00742065
a3e067b8:	69727720 	ldmvsdb	r2!, {r5, r8, r9, sl, ip, sp, lr}^
a3e067bc:	000a6574 	andeq	r6, sl, r4, ror r5
a3e067c0:	202e3109 	eorcs	r3, lr, r9, lsl #2
a3e067c4:	74697277 	strvcbt	r7, [r9], -#631
a3e067c8:	33622065 	cmncc	r2, #101	; 0x65
a3e067cc:	78302032 	ldmvcda	r0!, {r1, r4, r5, sp}
a3e067d0:	30303834 	eorccs	r3, r0, r4, lsr r8
a3e067d4:	43303030 	teqmi	r0, #48	; 0x30
a3e067d8:	31783020 	cmncc	r8, r0, lsr #32
a3e067dc:	35434232 	strccb	r4, [r3, -#562]
a3e067e0:	0a343535 	beq	a4b13cbc <tftpTimeout+0xd0c1c4>
a3e067e4:	00000000 	andeq	r0, r0, r0
a3e067e8:	73616c66 	cmnvc	r1, #26112	; 0x6600
a3e067ec:	00000068 	andeq	r0, r0, r8, rrx
a3e067f0:	616c6609 	cmnvs	ip, r9, lsl #12
a3e067f4:	5b206873 	blpl	a46209c8 <tftpTimeout+0x818ed0>
a3e067f8:	69736f70 	ldmvsdb	r3!, {r4, r5, r6, r8, r9, sl, fp, sp, lr}^
a3e067fc:	6e6f6974 	mcrvs	9, 3, r6, cr15, cr4, {3}
a3e06800:	203a205d 	eorcss	r2, sl, sp, asr r0
a3e06804:	74697257 	strvcbt	r7, [r9], -#599
a3e06808:	6d692065 	stcvsl	0, cr2, [r9, -#404]!
a3e0680c:	73656761 	cmnvc	r5, #25427968	; 0x1840000
a3e06810:	61687420 	cmnvs	r8, r0, lsr #8
a3e06814:	72612074 	rsbvc	r2, r1, #116	; 0x74
a3e06818:	72702065 	rsbvcs	r2, r0, #101	; 0x65
a3e0681c:	6f697665 	swivs	0x00697665
a3e06820:	796c7375 	stmvcdb	ip!, {r0, r2, r4, r5, r6, r8, r9, ip, sp, lr}^
a3e06824:	776f6420 	strvcb	r6, [pc, -r0, lsr #8]!
a3e06828:	616f6c6e 	cmnvs	pc, lr, ror #24
a3e0682c:	0a646564 	beq	a571fdc4 <tftpTimeout+0x19182cc>
a3e06830:	0000000a 	andeq	r0, r0, sl
a3e06834:	202e3109 	eorcs	r3, lr, r9, lsl #2
a3e06838:	69736f70 	ldmvsdb	r3!, {r4, r5, r6, r8, r9, sl, fp, sp, lr}^
a3e0683c:	6e6f6974 	mcrvs	9, 3, r6, cr15, cr4, {3}
a3e06840:	6f627b20 	swivs	0x00627b20
a3e06844:	7265746f 	rsbvc	r7, r5, #1862270976	; 0x6f000000
a3e06848:	72656b2f 	rsbvc	r6, r5, #48128	; 0xbc00
a3e0684c:	2f6c656e 	swics	0x006c656e
a3e06850:	646d6172 	strvsbt	r6, [sp], -#370
a3e06854:	2f6b7369 	swics	0x006b7369
a3e06858:	7d727375 	ldcvcl	3, cr7, [r2, -#468]!
a3e0685c:	53203a20 	teqpl	r0, #131072	; 0x20000
a3e06860:	69636570 	stmvsdb	r3!, {r4, r5, r6, r8, sl, sp, lr}^
a3e06864:	20636966 	rsbcs	r6, r3, r6, ror #18
a3e06868:	69736f70 	ldmvsdb	r3!, {r4, r5, r6, r8, r9, sl, fp, sp, lr}^
a3e0686c:	6e6f6974 	mcrvs	9, 3, r6, cr15, cr4, {3}
a3e06870:	206f7420 	rsbcs	r7, pc, r0, lsr #8
a3e06874:	74697277 	strvcbt	r7, [r9], -#631
a3e06878:	00000a65 	andeq	r0, r0, r5, ror #20
a3e0687c:	202e3109 	eorcs	r3, lr, r9, lsl #2
a3e06880:	73616c66 	cmnvc	r1, #26112	; 0x6600
a3e06884:	656b2068 	strvsb	r2, [fp, -#104]!
a3e06888:	6c656e72 	stcvsl	14, cr6, [r5], -#456
a3e0688c:	0000000a 	andeq	r0, r0, sl
a3e06890:	73617265 	cmnvc	r1, #1342177286	; 0x50000006
a3e06894:	00000065 	andeq	r0, r0, r5, rrx
a3e06898:	61726509 	cmnvs	r2, r9, lsl #10
a3e0689c:	5b206573 	blpl	a461fe70 <tftpTimeout+0x818378>
a3e068a0:	69736f70 	ldmvsdb	r3!, {r4, r5, r6, r8, r9, sl, fp, sp, lr}^
a3e068a4:	6e6f6974 	mcrvs	9, 3, r6, cr15, cr4, {3}
a3e068a8:	5b202c5d 	blpl	a4611a24 <tftpTimeout+0x809f2c>
a3e068ac:	72617473 	rsbvc	r7, r1, #1929379840	; 0x73000000
a3e068b0:	64612074 	strvsbt	r2, [r1], -#116
a3e068b4:	205d7264 	subcss	r7, sp, r4, ror #4
a3e068b8:	6e656c5b 	mcrvs	12, 3, r6, cr5, cr11, {2}
a3e068bc:	203a205d 	eorcss	r2, sl, sp, asr r0
a3e068c0:	73617245 	cmnvc	r1, #1342177284	; 0x50000004
a3e068c4:	6c662065 	stcvsl	0, cr2, [r6], -#404
a3e068c8:	20687361 	rsbcs	r7, r8, r1, ror #6
a3e068cc:	61657261 	cmnvs	r5, r1, ror #4
a3e068d0:	00000a0a 	andeq	r0, r0, sl, lsl #20
a3e068d4:	202e3109 	eorcs	r3, lr, r9, lsl #2
a3e068d8:	69736f70 	ldmvsdb	r3!, {r4, r5, r6, r8, r9, sl, fp, sp, lr}^
a3e068dc:	6e6f6974 	mcrvs	9, 3, r6, cr15, cr4, {3}
a3e068e0:	6f627b20 	swivs	0x00627b20
a3e068e4:	7265746f 	rsbvc	r7, r5, #1862270976	; 0x6f000000
a3e068e8:	72656b2f 	rsbvc	r6, r5, #48128	; 0xbc00
a3e068ec:	2f6c656e 	swics	0x006c656e
a3e068f0:	646d6172 	strvsbt	r6, [sp], -#370
a3e068f4:	2f6b7369 	swics	0x006b7369
a3e068f8:	7d727375 	ldcvcl	3, cr7, [r2, -#468]!
a3e068fc:	53203a20 	teqpl	r0, #131072	; 0x20000
a3e06900:	69636570 	stmvsdb	r3!, {r4, r5, r6, r8, sl, sp, lr}^
a3e06904:	20636966 	rsbcs	r6, r3, r6, ror #18
a3e06908:	69736f70 	ldmvsdb	r3!, {r4, r5, r6, r8, r9, sl, fp, sp, lr}^
a3e0690c:	6e6f6974 	mcrvs	9, 3, r6, cr15, cr4, {3}
a3e06910:	206f7420 	rsbcs	r7, pc, r0, lsr #8
a3e06914:	73617265 	cmnvc	r1, #1342177286	; 0x50000006
a3e06918:	00000a65 	andeq	r0, r0, r5, ror #20
a3e0691c:	202e3209 	eorcs	r3, lr, r9, lsl #4
a3e06920:	74617473 	strvcbt	r7, [r1], -#1139
a3e06924:	64646120 	strvsbt	r6, [r4], -#288
a3e06928:	203a2072 	eorcss	r2, sl, r2, ror r0
a3e0692c:	72617453 	rsbvc	r7, r1, #1392508928	; 0x53000000
a3e06930:	64612074 	strvsbt	r2, [r1], -#116
a3e06934:	73657264 	cmnvc	r5, #1073741830	; 0x40000006
a3e06938:	6f742073 	swivs	0x00742073
a3e0693c:	61726520 	cmnvs	r2, r0, lsr #10
a3e06940:	000a6573 	andeq	r6, sl, r3, ror r5
a3e06944:	202e3309 	eorcs	r3, lr, r9, lsl #6
a3e06948:	206e656c 	rsbcs	r6, lr, ip, ror #10
a3e0694c:	7245203a 	subvc	r2, r5, #58	; 0x3a
a3e06950:	20657361 	rsbcs	r7, r5, r1, ror #6
a3e06954:	676e656c 	strvsb	r6, [lr, -ip, ror #10]!
a3e06958:	000a6874 	andeq	r6, sl, r4, ror r8
a3e0695c:	202e3109 	eorcs	r3, lr, r9, lsl #2
a3e06960:	73617265 	cmnvc	r1, #1342177286	; 0x50000006
a3e06964:	656b2065 	strvsb	r2, [fp, -#101]!
a3e06968:	6c656e72 	stcvsl	14, cr6, [r5], -#456
a3e0696c:	0000000a 	andeq	r0, r0, sl
a3e06970:	202e3209 	eorcs	r3, lr, r9, lsl #4
a3e06974:	73617265 	cmnvc	r1, #1342177286	; 0x50000006
a3e06978:	78302065 	ldmvcda	r0!, {r0, r2, r5, r6, sp}
a3e0697c:	78302030 	ldmvcda	r0!, {r4, r5, sp}
a3e06980:	30303063 	eorccs	r3, r0, r3, rrx
a3e06984:	00000a30 	andeq	r0, r0, r0, lsr sl
a3e06988:	74617473 	strvcbt	r7, [r1], -#1139
a3e0698c:	00007375 	andeq	r7, r0, r5, ror r3
a3e06990:	61747309 	cmnvs	r4, r9, lsl #6
a3e06994:	20737574 	rsbcss	r7, r3, r4, ror r5
a3e06998:	7250203a 	subvcs	r2, r0, #58	; 0x3a
a3e0699c:	20746e69 	rsbcss	r6, r4, r9, ror #28
a3e069a0:	2c572f53 	mrrccs	15, 5, r2, r7, cr3
a3e069a4:	572f4820 	strpl	r4, [pc, -r0, lsr #16]!
a3e069a8:	646e6120 	strvsbt	r6, [lr], -#288
a3e069ac:	74656e20 	strvcbt	r6, [r5], -#3616
a3e069b0:	6b726f77 	blvs	a5aa2794 <tftpTimeout+0x1c9ac9c>
a3e069b4:	61747320 	cmnvs	r4, r0, lsr #6
a3e069b8:	0a737574 	beq	a5ae3f90 <tftpTimeout+0x1cdc498>
a3e069bc:	00000000 	andeq	r0, r0, r0
a3e069c0:	706c6568 	rsbvc	r6, ip, r8, ror #10
a3e069c4:	00000000 	andeq	r0, r0, r0
a3e069c8:	6c656809 	stcvsl	8, cr6, [r5], -#36
a3e069cc:	635b2070 	cmpvs	fp, #112	; 0x70
a3e069d0:	616d6d6f 	cmnvs	sp, pc, ror #26
a3e069d4:	205d646e 	subcss	r6, sp, lr, ror #8
a3e069d8:	7250203a 	subvcs	r2, r0, #58	; 0x3a
a3e069dc:	20746e69 	rsbcss	r6, r4, r9, ror #28
a3e069e0:	706c6568 	rsbvc	r6, ip, r8, ror #10
a3e069e4:	73656d20 	cmnvc	r5, #2048	; 0x800
a3e069e8:	65676173 	strvsb	r6, [r7, -#371]!
a3e069ec:	726f6620 	rsbvc	r6, pc, #33554432	; 0x2000000
a3e069f0:	65737520 	ldrvsb	r7, [r3, -#1312]!
a3e069f4:	74207372 	strvct	r7, [r0], -#882
a3e069f8:	706f206f 	rsbvc	r2, pc, pc, rrx
a3e069fc:	74617265 	strvcbt	r7, [r1], -#613
a3e06a00:	68742065 	ldmvsda	r4!, {r0, r2, r5, r6, sp}^
a3e06a04:	70207369 	eorvc	r7, r0, r9, ror #6
a3e06a08:	72676f72 	rsbvc	r6, r7, #456	; 0x1c8
a3e06a0c:	0a0a6d61 	beq	a40a1f98 <tftpTimeout+0x29a4a0>
a3e06a10:	00000000 	andeq	r0, r0, r0
a3e06a14:	202e3109 	eorcs	r3, lr, r9, lsl #2
a3e06a18:	6d6d6f63 	stcvsl	15, cr6, [sp, -#396]!
a3e06a1c:	20646e61 	rsbcs	r6, r4, r1, ror #28
a3e06a20:	7053203a 	subvcs	r2, r3, sl, lsr r0
a3e06a24:	66696365 	strvsbt	r6, [r9], -r5, ror #6
a3e06a28:	63206369 	teqvs	r0, #-1543503871	; 0xa4000001
a3e06a2c:	616d6d6f 	cmnvs	sp, pc, ror #26
a3e06a30:	7420646e 	strvct	r6, [r0], -#1134
a3e06a34:	6568206f 	strvsb	r2, [r8, -#111]!
a3e06a38:	202c706c 	eorcs	r7, ip, ip, rrx
a3e06a3c:	61666564 	cmnvs	r6, r4, ror #10
a3e06a40:	20746c75 	rsbcss	r6, r4, r5, ror ip
a3e06a44:	4e207369 	cdpmi	3, 2, cr7, cr0, cr9, {3}
a3e06a48:	0a4c4c55 	beq	a5119ba4 <tftpTimeout+0x13120ac>
a3e06a4c:	00000000 	andeq	r0, r0, r0
a3e06a50:	202e3109 	eorcs	r3, lr, r9, lsl #2
a3e06a54:	706c6568 	rsbvc	r6, ip, r8, ror #10
a3e06a58:	0000000a 	andeq	r0, r0, sl
a3e06a5c:	202e3209 	eorcs	r3, lr, r9, lsl #4
a3e06a60:	706c6568 	rsbvc	r6, ip, r8, ror #10
a3e06a64:	73657220 	cmnvc	r5, #2	; 0x2
a3e06a68:	000a7465 	andeq	r7, sl, r5, ror #8
a3e06a6c:	74736574 	ldrvcbt	r6, [r3], -#1396
a3e06a70:	00000000 	andeq	r0, r0, r0
a3e06a74:	73657409 	cmnvc	r5, #150994944	; 0x9000000
a3e06a78:	2e5b2074 	mrccs	0, 2, r2, cr11, cr4, {3}
a3e06a7c:	2e5b5d2e 	cdpcs	13, 5, cr5, cr11, cr14, {1}
a3e06a80:	2e2e5d2e 	cdpcs	13, 2, cr5, cr14, cr14, {1}
a3e06a84:	203a202e 	eorcss	r2, sl, lr, lsr #32
a3e06a88:	20646441 	rsbcs	r6, r4, r1, asr #8
a3e06a8c:	72756f79 	rsbvcs	r6, r5, #484	; 0x1e4
a3e06a90:	646f6320 	strvsbt	r6, [pc], #320	; a3e06a98 <version+0x1208>
a3e06a94:	6e692065 	cdpvs	0, 6, cr2, cr9, cr5, {3}
a3e06a98:	69687420 	stmvsdb	r8!, {r5, sl, ip, sp, lr}^
a3e06a9c:	75662073 	strvcb	r2, [r6, -#115]!
a3e06aa0:	6974636e 	ldmvsdb	r4!, {r1, r2, r3, r5, r6, r8, r9, sp, lr}^
a3e06aa4:	66206e6f 	strvst	r6, [r0], -pc, ror #28
a3e06aa8:	5320726f 	teqpl	r0, #-268435450	; 0xf0000006
a3e06aac:	202c572f 	eorcs	r5, ip, pc, lsr #14
a3e06ab0:	20572f48 	subcss	r2, r7, r8, asr #30
a3e06ab4:	74736574 	ldrvcbt	r6, [r3], -#1396
a3e06ab8:	00000a0a 	andeq	r0, r0, sl, lsl #20
a3e06abc:	69685409 	stmvsdb	r8!, {r0, r3, sl, ip, lr}^
a3e06ac0:	6f632073 	swivs	0x00632073
a3e06ac4:	6e616d6d 	cdpvs	13, 6, cr6, cr1, cr13, {3}
a3e06ac8:	73692064 	cmnvc	r9, #100	; 0x64
a3e06acc:	746f6e20 	strvcbt	r6, [pc], #e20	; a3e06ad4 <version+0x1244>
a3e06ad0:	70757320 	rsbvcs	r7, r5, r0, lsr #6
a3e06ad4:	74726f70 	ldrvcbt	r6, [r2], -#3952
a3e06ad8:	2e2e6465 	cdpcs	4, 2, cr6, cr14, cr5, {3}
a3e06adc:	000a0a2e 	andeq	r0, sl, lr, lsr #20
a3e06ae0:	00003862 	andeq	r3, r0, r2, ror #16
a3e06ae4:	64646109 	strvsbt	r6, [r4], -#265
a3e06ae8:	73736572 	cmnvc	r3, #478150656	; 0x1c800000
a3e06aec:	30203a20 	eorcc	r3, r0, r0, lsr #20
a3e06af0:	38302578 	ldmccda	r0!, {r3, r4, r5, r6, r8, sl, sp}
a3e06af4:	2020786c 	eorcs	r7, r0, ip, ror #16
a3e06af8:	61762020 	cmnvs	r6, r0, lsr #32
a3e06afc:	2065756c 	rsbcs	r7, r5, ip, ror #10
a3e06b00:	7830203a 	ldmvcda	r0!, {r1, r3, r4, r5, sp}
a3e06b04:	78323025 	ldmvcda	r2!, {r0, r2, r5, ip, sp}
a3e06b08:	0000000a 	andeq	r0, r0, sl
a3e06b0c:	00363162 	eoreqs	r3, r6, r2, ror #2
a3e06b10:	64646109 	strvsbt	r6, [r4], -#265
a3e06b14:	73736572 	cmnvc	r3, #478150656	; 0x1c800000
a3e06b18:	30203a20 	eorcc	r3, r0, r0, lsr #20
a3e06b1c:	38302578 	ldmccda	r0!, {r3, r4, r5, r6, r8, sl, sp}
a3e06b20:	2020786c 	eorcs	r7, r0, ip, ror #16
a3e06b24:	61762020 	cmnvs	r6, r0, lsr #32
a3e06b28:	2065756c 	rsbcs	r7, r5, ip, ror #10
a3e06b2c:	7830203a 	ldmvcda	r0!, {r1, r3, r4, r5, sp}
a3e06b30:	78343025 	ldmvcda	r4!, {r0, r2, r5, ip, sp}
a3e06b34:	0000000a 	andeq	r0, r0, sl
a3e06b38:	00323362 	eoreqs	r3, r2, r2, ror #6
a3e06b3c:	64646109 	strvsbt	r6, [r4], -#265
a3e06b40:	73736572 	cmnvc	r3, #478150656	; 0x1c800000
a3e06b44:	30203a20 	eorcc	r3, r0, r0, lsr #20
a3e06b48:	38302578 	ldmccda	r0!, {r3, r4, r5, r6, r8, sl, sp}
a3e06b4c:	2020786c 	eorcs	r7, r0, ip, ror #16
a3e06b50:	61762020 	cmnvs	r6, r0, lsr #32
a3e06b54:	2065756c 	rsbcs	r7, r5, ip, ror #10
a3e06b58:	7830203a 	ldmvcda	r0!, {r1, r3, r4, r5, sp}
a3e06b5c:	6c383025 	ldcvs	0, cr3, [r8], -#148
a3e06b60:	00000a78 	andeq	r0, r0, r8, ror sl
a3e06b64:	65727009 	ldrvsb	r7, [r2, -#9]!
a3e06b68:	756f6976 	strvcb	r6, [pc, #fffff68a]!	; a3e061fa <version+0x96a>
a3e06b6c:	61762073 	cmnvs	r6, r3, ror r0
a3e06b70:	0a65756c 	beq	a5764128 <tftpTimeout+0x195c630>
a3e06b74:	64646109 	strvsbt	r6, [r4], -#265
a3e06b78:	73736572 	cmnvc	r3, #478150656	; 0x1c800000
a3e06b7c:	30203a20 	eorcc	r3, r0, r0, lsr #20
a3e06b80:	38302578 	ldmccda	r0!, {r3, r4, r5, r6, r8, sl, sp}
a3e06b84:	2020786c 	eorcs	r7, r0, ip, ror #16
a3e06b88:	61762020 	cmnvs	r6, r0, lsr #32
a3e06b8c:	2065756c 	rsbcs	r7, r5, ip, ror #10
a3e06b90:	7830203a 	ldmvcda	r0!, {r1, r3, r4, r5, sp}
a3e06b94:	78323025 	ldmvcda	r2!, {r0, r2, r5, ip, sp}
a3e06b98:	00000a0a 	andeq	r0, r0, sl, lsl #20
a3e06b9c:	61686309 	cmnvs	r8, r9, lsl #6
a3e06ba0:	6465676e 	strvsbt	r6, [r5], -#1902
a3e06ba4:	6c617620 	stcvsl	6, cr7, [r1], -#128
a3e06ba8:	090a6575 	stmeqdb	sl, {r0, r2, r4, r5, r6, r8, sl, sp, lr}
a3e06bac:	72646461 	rsbvc	r6, r4, #1627389952	; 0x61000000
a3e06bb0:	20737365 	rsbcss	r7, r3, r5, ror #6
a3e06bb4:	7830203a 	ldmvcda	r0!, {r1, r3, r4, r5, sp}
a3e06bb8:	6c383025 	ldcvs	0, cr3, [r8], -#148
a3e06bbc:	20202078 	eorcs	r2, r0, r8, ror r0
a3e06bc0:	6c617620 	stcvsl	6, cr7, [r1], -#128
a3e06bc4:	3a206575 	bcc	a46201a0 <tftpTimeout+0x8186a8>
a3e06bc8:	25783020 	ldrcsb	r3, [r8, -#32]!
a3e06bcc:	0a783230 	beq	a5c13494 <tftpTimeout+0x1e0b99c>
a3e06bd0:	00000000 	andeq	r0, r0, r0
a3e06bd4:	65727009 	ldrvsb	r7, [r2, -#9]!
a3e06bd8:	756f6976 	strvcb	r6, [pc, #fffff68a]!	; a3e0626a <version+0x9da>
a3e06bdc:	61762073 	cmnvs	r6, r3, ror r0
a3e06be0:	0a65756c 	beq	a5764198 <tftpTimeout+0x195c6a0>
a3e06be4:	64646109 	strvsbt	r6, [r4], -#265
a3e06be8:	73736572 	cmnvc	r3, #478150656	; 0x1c800000
a3e06bec:	30203a20 	eorcc	r3, r0, r0, lsr #20
a3e06bf0:	38302578 	ldmccda	r0!, {r3, r4, r5, r6, r8, sl, sp}
a3e06bf4:	2020786c 	eorcs	r7, r0, ip, ror #16
a3e06bf8:	61762020 	cmnvs	r6, r0, lsr #32
a3e06bfc:	2065756c 	rsbcs	r7, r5, ip, ror #10
a3e06c00:	7830203a 	ldmvcda	r0!, {r1, r3, r4, r5, sp}
a3e06c04:	78343025 	ldmvcda	r4!, {r0, r2, r5, ip, sp}
a3e06c08:	00000a0a 	andeq	r0, r0, sl, lsl #20
a3e06c0c:	61686309 	cmnvs	r8, r9, lsl #6
a3e06c10:	6465676e 	strvsbt	r6, [r5], -#1902
a3e06c14:	6c617620 	stcvsl	6, cr7, [r1], -#128
a3e06c18:	090a6575 	stmeqdb	sl, {r0, r2, r4, r5, r6, r8, sl, sp, lr}
a3e06c1c:	72646461 	rsbvc	r6, r4, #1627389952	; 0x61000000
a3e06c20:	20737365 	rsbcss	r7, r3, r5, ror #6
a3e06c24:	7830203a 	ldmvcda	r0!, {r1, r3, r4, r5, sp}
a3e06c28:	6c383025 	ldcvs	0, cr3, [r8], -#148
a3e06c2c:	20202078 	eorcs	r2, r0, r8, ror r0
a3e06c30:	6c617620 	stcvsl	6, cr7, [r1], -#128
a3e06c34:	3a206575 	bcc	a4620210 <tftpTimeout+0x818718>
a3e06c38:	25783020 	ldrcsb	r3, [r8, -#32]!
a3e06c3c:	0a783430 	beq	a5c13d04 <tftpTimeout+0x1e0c20c>
a3e06c40:	00000000 	andeq	r0, r0, r0
a3e06c44:	65727009 	ldrvsb	r7, [r2, -#9]!
a3e06c48:	756f6976 	strvcb	r6, [pc, #fffff68a]!	; a3e062da <version+0xa4a>
a3e06c4c:	61762073 	cmnvs	r6, r3, ror r0
a3e06c50:	0a65756c 	beq	a5764208 <tftpTimeout+0x195c710>
a3e06c54:	64646109 	strvsbt	r6, [r4], -#265
a3e06c58:	73736572 	cmnvc	r3, #478150656	; 0x1c800000
a3e06c5c:	30203a20 	eorcc	r3, r0, r0, lsr #20
a3e06c60:	38302578 	ldmccda	r0!, {r3, r4, r5, r6, r8, sl, sp}
a3e06c64:	2020786c 	eorcs	r7, r0, ip, ror #16
a3e06c68:	61762020 	cmnvs	r6, r0, lsr #32
a3e06c6c:	2065756c 	rsbcs	r7, r5, ip, ror #10
a3e06c70:	7830203a 	ldmvcda	r0!, {r1, r3, r4, r5, sp}
a3e06c74:	6c383025 	ldcvs	0, cr3, [r8], -#148
a3e06c78:	000a0a78 	andeq	r0, sl, r8, ror sl
a3e06c7c:	61686309 	cmnvs	r8, r9, lsl #6
a3e06c80:	6465676e 	strvsbt	r6, [r5], -#1902
a3e06c84:	6c617620 	stcvsl	6, cr7, [r1], -#128
a3e06c88:	090a6575 	stmeqdb	sl, {r0, r2, r4, r5, r6, r8, sl, sp, lr}
a3e06c8c:	72646461 	rsbvc	r6, r4, #1627389952	; 0x61000000
a3e06c90:	20737365 	rsbcss	r7, r3, r5, ror #6
a3e06c94:	7830203a 	ldmvcda	r0!, {r1, r3, r4, r5, sp}
a3e06c98:	6c383025 	ldcvs	0, cr3, [r8], -#148
a3e06c9c:	20202078 	eorcs	r2, r0, r8, ror r0
a3e06ca0:	6c617620 	stcvsl	6, cr7, [r1], -#128
a3e06ca4:	3a206575 	bcc	a4620280 <tftpTimeout+0x818788>
a3e06ca8:	25783020 	ldrcsb	r3, [r8, -#32]!
a3e06cac:	786c3830 	stmvcda	ip!, {r4, r5, fp, ip, sp}^
a3e06cb0:	0000000a 	andeq	r0, r0, sl
a3e06cb4:	6d6d6f43 	stcvsl	15, cr6, [sp, -#268]!
a3e06cb8:	20646e61 	rsbcs	r6, r4, r1, ror #28
a3e06cbc:	6f727265 	swivs	0x00727265
a3e06cc0:	000a2072 	andeq	r2, sl, r2, ror r0
a3e06cc4:	69725009 	ldmvsdb	r2!, {r0, r3, ip, lr}^
a3e06cc8:	7972616d 	ldmvcdb	r2!, {r0, r2, r3, r5, r6, r8, sp, lr}^
a3e06ccc:	43414d20 	cmpmi	r1, #2048	; 0x800
a3e06cd0:	64644120 	strvsbt	r4, [r4], -#288
a3e06cd4:	73736572 	cmnvc	r3, #478150656	; 0x1c800000
a3e06cd8:	30203a09 	eorcc	r3, r0, r9, lsl #20
a3e06cdc:	00000078 	andeq	r0, r0, r8, ror r0
a3e06ce0:	0000000a 	andeq	r0, r0, sl
a3e06ce4:	63655309 	cmnvs	r5, #603979776	; 0x24000000
a3e06ce8:	61646e6f 	cmnvs	r4, pc, ror #28
a3e06cec:	4d207972 	stcmi	9, cr7, [r0, -#456]!
a3e06cf0:	41204341 	teqmi	r0, r1, asr #6
a3e06cf4:	65726464 	ldrvsb	r6, [r2, -#1124]!
a3e06cf8:	3a097373 	bcc	a4063acc <tftpTimeout+0x25bfd4>
a3e06cfc:	00783020 	rsbeqs	r3, r8, r0, lsr #32
a3e06d00:	00697270 	rsbeq	r7, r9, r0, ror r2
a3e06d04:	00636573 	rsbeq	r6, r3, r3, ror r5
a3e06d08:	76677261 	strvcbt	r7, [r7], -r1, ror #4
a3e06d0c:	73692032 	cmnvc	r9, #50	; 0x32
a3e06d10:	746f6e20 	strvcbt	r6, [pc], #e20	; a3e06d18 <version+0x1488>
a3e06d14:	726f6320 	rsbvc	r6, pc, #-2147483648	; 0x80000000
a3e06d18:	74636572 	strvcbt	r6, [r3], -#1394
a3e06d1c:	0000000a 	andeq	r0, r0, sl
a3e06d20:	61724520 	cmnvs	r2, r0, lsr #10
a3e06d24:	46206573 	undefined
a3e06d28:	656c6961 	strvsb	r6, [ip, -#2401]!
a3e06d2c:	00000a64 	andeq	r0, r0, r4, ror #20
a3e06d30:	69725720 	ldmvsdb	r2!, {r5, r8, r9, sl, ip, lr}^
a3e06d34:	46206574 	undefined
a3e06d38:	656c6961 	strvsb	r6, [ip, -#2401]!
a3e06d3c:	00000a64 	andeq	r0, r0, r4, ror #20
a3e06d40:	77654e09 	strvcb	r4, [r5, -r9, lsl #28]!
a3e06d44:	69727020 	ldmvsdb	r2!, {r5, ip, sp, lr}^
a3e06d48:	43414d20 	cmpmi	r1, #2048	; 0x800
a3e06d4c:	64644120 	strvsbt	r4, [r4], -#288
a3e06d50:	73736572 	cmnvc	r3, #478150656	; 0x1c800000
a3e06d54:	30203a09 	eorcc	r3, r0, r9, lsl #20
a3e06d58:	00000078 	andeq	r0, r0, r8, ror r0
a3e06d5c:	77654e09 	strvcb	r4, [r5, -r9, lsl #28]!
a3e06d60:	63657320 	cmnvs	r5, #-2147483648	; 0x80000000
a3e06d64:	43414d20 	cmpmi	r1, #2048	; 0x800
a3e06d68:	64644120 	strvsbt	r4, [r4], -#288
a3e06d6c:	73736572 	cmnvc	r3, #478150656	; 0x1c800000
a3e06d70:	30203a09 	eorcc	r3, r0, r9, lsl #20
a3e06d74:	00000078 	andeq	r0, r0, r8, ror r0
a3e06d78:	736f4809 	cmnvc	pc, #589824	; 0x90000
a3e06d7c:	20202074 	eorcs	r2, r0, r4, ror r0
a3e06d80:	72657328 	rsbvc	r7, r5, #-1610612736	; 0xa0000000
a3e06d84:	29726576 	ldmcsdb	r2!, {r1, r2, r4, r5, r6, r8, sl, sp, lr}^
a3e06d88:	20504920 	subcss	r4, r0, r0, lsr #18
a3e06d8c:	20202020 	eorcs	r2, r0, r0, lsr #32
a3e06d90:	203a2020 	eorcss	r2, sl, r0, lsr #32
a3e06d94:	00000000 	andeq	r0, r0, r0
a3e06d98:	696c4309 	stmvsdb	ip!, {r0, r3, r8, r9, lr}^
a3e06d9c:	20746e65 	rsbcss	r6, r4, r5, ror #28
a3e06da0:	72617428 	rsbvc	r7, r1, #671088640	; 0x28000000
a3e06da4:	29746567 	ldmcsdb	r4!, {r0, r1, r2, r5, r6, r8, sl, sp, lr}^
a3e06da8:	20504920 	subcss	r4, r0, r0, lsr #18
a3e06dac:	20202020 	eorcs	r2, r0, r0, lsr #32
a3e06db0:	203a2020 	eorcss	r2, sl, r0, lsr #32
a3e06db4:	00000000 	andeq	r0, r0, r0
a3e06db8:	00000a0a 	andeq	r0, r0, sl, lsl #20
a3e06dbc:	202a090a 	eorcs	r0, sl, sl, lsl #18
a3e06dc0:	6f6d654d 	swivs	0x006d654d
a3e06dc4:	4d207972 	stcmi	9, cr7, [r0, -#456]!
a3e06dc8:	2a207061 	bcs	a4622f54 <tftpTimeout+0x81b45c>
a3e06dcc:	0000000a 	andeq	r0, r0, sl
a3e06dd0:	6f6f6209 	swivs	0x006f6209
a3e06dd4:	616f6c74 	cmnvs	pc, r4, ror ip
a3e06dd8:	29726564 	ldmcsdb	r2!, {r2, r5, r6, r8, sl, sp, lr}^
a3e06ddc:	4d4f5220 	sfmmi	f5, 2, [pc, -#128]
a3e06de0:	30203a20 	eorcc	r3, r0, r0, lsr #20
a3e06de4:	38302578 	ldmccda	r0!, {r3, r4, r5, r6, r8, sl, sp}
a3e06de8:	202c786c 	eorcs	r7, ip, ip, ror #16
a3e06dec:	204d4152 	subcs	r4, sp, r2, asr r1
a3e06df0:	7830203a 	ldmvcda	r0!, {r1, r3, r4, r5, sp}
a3e06df4:	6c383025 	ldcvs	0, cr3, [r8], -#148
a3e06df8:	4c202c78 	stcmi	12, cr2, [r0], -#480
a3e06dfc:	54474e45 	strplb	r4, [r7], -#3653
a3e06e00:	203a2048 	eorcss	r2, sl, r8, asr #32
a3e06e04:	30257830 	eorcc	r7, r5, r0, lsr r8
a3e06e08:	0a786c38 	beq	a5c21ef0 <tftpTimeout+0x1e1a3f8>
a3e06e0c:	00000000 	andeq	r0, r0, r0
a3e06e10:	72656b09 	rsbvc	r6, r5, #9216	; 0x2400
a3e06e14:	296c656e 	stmcsdb	ip!, {r1, r2, r3, r5, r6, r8, sl, sp, lr}^
a3e06e18:	20202020 	eorcs	r2, r0, r0, lsr #32
a3e06e1c:	4d4f5220 	sfmmi	f5, 2, [pc, -#128]
a3e06e20:	30203a20 	eorcc	r3, r0, r0, lsr #20
a3e06e24:	38302578 	ldmccda	r0!, {r3, r4, r5, r6, r8, sl, sp}
a3e06e28:	202c786c 	eorcs	r7, ip, ip, ror #16
a3e06e2c:	204d4152 	subcs	r4, sp, r2, asr r1
a3e06e30:	7830203a 	ldmvcda	r0!, {r1, r3, r4, r5, sp}
a3e06e34:	6c383025 	ldcvs	0, cr3, [r8], -#148
a3e06e38:	4c202c78 	stcmi	12, cr2, [r0], -#480
a3e06e3c:	54474e45 	strplb	r4, [r7], -#3653
a3e06e40:	203a2048 	eorcss	r2, sl, r8, asr #32
a3e06e44:	30257830 	eorcc	r7, r5, r0, lsr r8
a3e06e48:	0a786c38 	beq	a5c21f30 <tftpTimeout+0x1e1a438>
a3e06e4c:	00000000 	andeq	r0, r0, r0
a3e06e50:	6d617209 	sfmvs	f7, 2, [r1, -#36]!
a3e06e54:	6b736964 	blvs	a5ae13ec <tftpTimeout+0x1cd98f4>
a3e06e58:	20202029 	eorcs	r2, r0, r9, lsr #32
a3e06e5c:	4d4f5220 	sfmmi	f5, 2, [pc, -#128]
a3e06e60:	30203a20 	eorcc	r3, r0, r0, lsr #20
a3e06e64:	38302578 	ldmccda	r0!, {r3, r4, r5, r6, r8, sl, sp}
a3e06e68:	202c786c 	eorcs	r7, ip, ip, ror #16
a3e06e6c:	204d4152 	subcs	r4, sp, r2, asr r1
a3e06e70:	7830203a 	ldmvcda	r0!, {r1, r3, r4, r5, sp}
a3e06e74:	6c383025 	ldcvs	0, cr3, [r8], -#148
a3e06e78:	4c202c78 	stcmi	12, cr2, [r0], -#480
a3e06e7c:	54474e45 	strplb	r4, [r7], -#3653
a3e06e80:	203a2048 	eorcss	r2, sl, r8, asr #32
a3e06e84:	30257830 	eorcc	r7, r5, r0, lsr r8
a3e06e88:	0a786c38 	beq	a5c21f70 <tftpTimeout+0x1e1a478>
a3e06e8c:	00000000 	andeq	r0, r0, r0
a3e06e90:	72737509 	rsbvcs	r7, r3, #37748736	; 0x2400000
a3e06e94:	20202029 	eorcs	r2, r0, r9, lsr #32
a3e06e98:	20202020 	eorcs	r2, r0, r0, lsr #32
a3e06e9c:	4d4f5220 	sfmmi	f5, 2, [pc, -#128]
a3e06ea0:	30203a20 	eorcc	r3, r0, r0, lsr #20
a3e06ea4:	38302578 	ldmccda	r0!, {r3, r4, r5, r6, r8, sl, sp}
a3e06ea8:	202c786c 	eorcs	r7, ip, ip, ror #16
a3e06eac:	204d4152 	subcs	r4, sp, r2, asr r1
a3e06eb0:	7830203a 	ldmvcda	r0!, {r1, r3, r4, r5, sp}
a3e06eb4:	6c383025 	ldcvs	0, cr3, [r8], -#148
a3e06eb8:	4c202c78 	stcmi	12, cr2, [r0], -#480
a3e06ebc:	54474e45 	strplb	r4, [r7], -#3653
a3e06ec0:	203a2048 	eorcss	r2, sl, r8, asr #32
a3e06ec4:	30257830 	eorcc	r7, r5, r0, lsr r8
a3e06ec8:	0a786c38 	beq	a5c21fb0 <tftpTimeout+0x1e1a4b8>
a3e06ecc:	00000000 	andeq	r0, r0, r0
a3e06ed0:	202a090a 	eorcs	r0, sl, sl, lsl #18
a3e06ed4:	7774654e 	ldrvcb	r6, [r4, -lr, asr #10]!
a3e06ed8:	206b726f 	rsbcs	r7, fp, pc, ror #4
a3e06edc:	74617453 	strvcbt	r7, [r1], -#1107
a3e06ee0:	2a207375 	bcs	a4623cbc <tftpTimeout+0x81c1c4>
a3e06ee4:	0000000a 	andeq	r0, r0, sl
a3e06ee8:	736f4809 	cmnvc	pc, #589824	; 0x90000
a3e06eec:	20202074 	eorcs	r2, r0, r4, ror r0
a3e06ef0:	28202020 	stmcsda	r0!, {r5, sp}
a3e06ef4:	76726573 	undefined
a3e06ef8:	20297265 	eorcs	r7, r9, r5, ror #4
a3e06efc:	65687445 	strvsb	r7, [r8, -#1093]!
a3e06f00:	74656e72 	strvcbt	r6, [r5], -#3698
a3e06f04:	30203a20 	eorcc	r3, r0, r0, lsr #20
a3e06f08:	00000078 	andeq	r0, r0, r8, ror r0
a3e06f0c:	736f4809 	cmnvc	pc, #589824	; 0x90000
a3e06f10:	20202074 	eorcs	r2, r0, r4, ror r0
a3e06f14:	28202020 	stmcsda	r0!, {r5, sp}
a3e06f18:	76726573 	undefined
a3e06f1c:	20297265 	eorcs	r7, r9, r5, ror #4
a3e06f20:	20205049 	eorcs	r5, r0, r9, asr #32
a3e06f24:	20202020 	eorcs	r2, r0, r0, lsr #32
a3e06f28:	00203a20 	eoreq	r3, r0, r0, lsr #20
a3e06f2c:	696c4309 	stmvsdb	ip!, {r0, r3, r8, r9, lr}^
a3e06f30:	20746e65 	rsbcss	r6, r4, r5, ror #28
a3e06f34:	28202020 	stmcsda	r0!, {r5, sp}
a3e06f38:	67726174 	undefined
a3e06f3c:	20297465 	eorcs	r7, r9, r5, ror #8
a3e06f40:	65687445 	strvsb	r7, [r8, -#1093]!
a3e06f44:	74656e72 	strvcbt	r6, [r5], -#3698
a3e06f48:	30203a20 	eorcc	r3, r0, r0, lsr #20
a3e06f4c:	00000078 	andeq	r0, r0, r8, ror r0
a3e06f50:	696c4309 	stmvsdb	ip!, {r0, r3, r8, r9, lr}^
a3e06f54:	20746e65 	rsbcss	r6, r4, r5, ror #28
a3e06f58:	28202020 	stmcsda	r0!, {r5, sp}
a3e06f5c:	67726174 	undefined
a3e06f60:	20297465 	eorcs	r7, r9, r5, ror #8
a3e06f64:	20205049 	eorcs	r5, r0, r9, asr #32
a3e06f68:	20202020 	eorcs	r2, r0, r0, lsr #32
a3e06f6c:	00203a20 	eoreq	r3, r0, r0, lsr #20
a3e06f70:	69725009 	ldmvsdb	r2!, {r0, r3, ip, lr}^
a3e06f74:	7972616d 	ldmvcdb	r2!, {r0, r2, r3, r5, r6, r8, sp, lr}^
a3e06f78:	28202020 	stmcsda	r0!, {r5, sp}
a3e06f7c:	67726174 	undefined
a3e06f80:	20297465 	eorcs	r7, r9, r5, ror #8
a3e06f84:	65687445 	strvsb	r7, [r8, -#1093]!
a3e06f88:	74656e72 	strvcbt	r6, [r5], -#3698
a3e06f8c:	30203a20 	eorcc	r3, r0, r0, lsr #20
a3e06f90:	00000078 	andeq	r0, r0, r8, ror r0
a3e06f94:	63655309 	cmnvs	r5, #603979776	; 0x24000000
a3e06f98:	61646e6f 	cmnvs	r4, pc, ror #28
a3e06f9c:	28207972 	stmcsda	r0!, {r1, r4, r5, r6, r8, fp, ip, sp, lr}
a3e06fa0:	67726174 	undefined
a3e06fa4:	20297465 	eorcs	r7, r9, r5, ror #8
a3e06fa8:	65687445 	strvsb	r7, [r8, -#1093]!
a3e06fac:	74656e72 	strvcbt	r6, [r5], -#3698
a3e06fb0:	30203a20 	eorcc	r3, r0, r0, lsr #20
a3e06fb4:	00000078 	andeq	r0, r0, r8, ror r0
a3e06fb8:	202a090a 	eorcs	r0, sl, sl, lsl #18
a3e06fbc:	69676552 	stmvsdb	r7!, {r1, r4, r6, r8, sl, sp, lr}^
a3e06fc0:	72657473 	rsbvc	r7, r5, #1929379840	; 0x73000000
a3e06fc4:	61562073 	cmpvs	r6, r3, ror r0
a3e06fc8:	2065756c 	rsbcs	r7, r5, ip, ror #10
a3e06fcc:	00000a2a 	andeq	r0, r0, sl, lsr #20
a3e06fd0:	43444d09 	cmpmi	r4, #576	; 0x240
a3e06fd4:	0947464e 	stmeqdb	r7, {r1, r2, r3, r6, r9, sl, lr}^
a3e06fd8:	72646461 	rsbvc	r6, r4, #1627389952	; 0x61000000
a3e06fdc:	20737365 	rsbcss	r7, r3, r5, ror #6
a3e06fe0:	7830203a 	ldmvcda	r0!, {r1, r3, r4, r5, sp}
a3e06fe4:	6c383025 	ldcvs	0, cr3, [r8], -#148
a3e06fe8:	20202078 	eorcs	r2, r0, r8, ror r0
a3e06fec:	6c617620 	stcvsl	6, cr7, [r1], -#128
a3e06ff0:	3a206575 	bcc	a46205cc <tftpTimeout+0x818ad4>
a3e06ff4:	25783020 	ldrcsb	r3, [r8, -#32]!
a3e06ff8:	786c3830 	stmvcda	ip!, {r4, r5, fp, ip, sp}^
a3e06ffc:	0000000a 	andeq	r0, r0, sl
a3e07000:	52444d09 	subpl	r4, r4, #576	; 0x240
a3e07004:	09524645 	ldmeqdb	r2, {r0, r2, r6, r9, sl, lr}^
a3e07008:	72646461 	rsbvc	r6, r4, #1627389952	; 0x61000000
a3e0700c:	20737365 	rsbcss	r7, r3, r5, ror #6
a3e07010:	7830203a 	ldmvcda	r0!, {r1, r3, r4, r5, sp}
a3e07014:	6c383025 	ldcvs	0, cr3, [r8], -#148
a3e07018:	20202078 	eorcs	r2, r0, r8, ror r0
a3e0701c:	6c617620 	stcvsl	6, cr7, [r1], -#128
a3e07020:	3a206575 	bcc	a46205fc <tftpTimeout+0x818b04>
a3e07024:	25783020 	ldrcsb	r3, [r8, -#32]!
a3e07028:	786c3830 	stmvcda	ip!, {r4, r5, fp, ip, sp}^
a3e0702c:	0000000a 	andeq	r0, r0, sl
a3e07030:	43534d09 	cmpmi	r3, #576	; 0x240
a3e07034:	09202030 	stmeqdb	r0!, {r4, r5, sp}
a3e07038:	72646461 	rsbvc	r6, r4, #1627389952	; 0x61000000
a3e0703c:	20737365 	rsbcss	r7, r3, r5, ror #6
a3e07040:	7830203a 	ldmvcda	r0!, {r1, r3, r4, r5, sp}
a3e07044:	6c383025 	ldcvs	0, cr3, [r8], -#148
a3e07048:	20202078 	eorcs	r2, r0, r8, ror r0
a3e0704c:	6c617620 	stcvsl	6, cr7, [r1], -#128
a3e07050:	3a206575 	bcc	a462062c <tftpTimeout+0x818b34>
a3e07054:	25783020 	ldrcsb	r3, [r8, -#32]!
a3e07058:	786c3830 	stmvcda	ip!, {r4, r5, fp, ip, sp}^
a3e0705c:	0000000a 	andeq	r0, r0, sl
a3e07060:	43534d09 	cmpmi	r3, #576	; 0x240
a3e07064:	09202031 	stmeqdb	r0!, {r0, r4, r5, sp}
a3e07068:	72646461 	rsbvc	r6, r4, #1627389952	; 0x61000000
a3e0706c:	20737365 	rsbcss	r7, r3, r5, ror #6
a3e07070:	7830203a 	ldmvcda	r0!, {r1, r3, r4, r5, sp}
a3e07074:	6c383025 	ldcvs	0, cr3, [r8], -#148
a3e07078:	20202078 	eorcs	r2, r0, r8, ror r0
a3e0707c:	6c617620 	stcvsl	6, cr7, [r1], -#128
a3e07080:	3a206575 	bcc	a462065c <tftpTimeout+0x818b64>
a3e07084:	25783020 	ldrcsb	r3, [r8, -#32]!
a3e07088:	786c3830 	stmvcda	ip!, {r4, r5, fp, ip, sp}^
a3e0708c:	0000000a 	andeq	r0, r0, sl
a3e07090:	43534d09 	cmpmi	r3, #576	; 0x240
a3e07094:	09202032 	stmeqdb	r0!, {r1, r4, r5, sp}
a3e07098:	72646461 	rsbvc	r6, r4, #1627389952	; 0x61000000
a3e0709c:	20737365 	rsbcss	r7, r3, r5, ror #6
a3e070a0:	7830203a 	ldmvcda	r0!, {r1, r3, r4, r5, sp}
a3e070a4:	6c383025 	ldcvs	0, cr3, [r8], -#148
a3e070a8:	20202078 	eorcs	r2, r0, r8, ror r0
a3e070ac:	6c617620 	stcvsl	6, cr7, [r1], -#128
a3e070b0:	3a206575 	bcc	a462068c <tftpTimeout+0x818b94>
a3e070b4:	25783020 	ldrcsb	r3, [r8, -#32]!
a3e070b8:	786c3830 	stmvcda	ip!, {r4, r5, fp, ip, sp}^
a3e070bc:	0000000a 	andeq	r0, r0, sl
a3e070c0:	43454d09 	cmpmi	r5, #576	; 0x240
a3e070c4:	09202052 	stmeqdb	r0!, {r1, r4, r6, sp}
a3e070c8:	72646461 	rsbvc	r6, r4, #1627389952	; 0x61000000
a3e070cc:	20737365 	rsbcss	r7, r3, r5, ror #6
a3e070d0:	7830203a 	ldmvcda	r0!, {r1, r3, r4, r5, sp}
a3e070d4:	6c383025 	ldcvs	0, cr3, [r8], -#148
a3e070d8:	20202078 	eorcs	r2, r0, r8, ror r0
a3e070dc:	6c617620 	stcvsl	6, cr7, [r1], -#128
a3e070e0:	3a206575 	bcc	a46206bc <tftpTimeout+0x818bc4>
a3e070e4:	25783020 	ldrcsb	r3, [r8, -#32]!
a3e070e8:	786c3830 	stmvcda	ip!, {r4, r5, fp, ip, sp}^
a3e070ec:	0000000a 	andeq	r0, r0, sl
a3e070f0:	43585309 	cmpmi	r8, #603979776	; 0x24000000
a3e070f4:	0947464e 	stmeqdb	r7, {r1, r2, r3, r6, r9, sl, lr}^
a3e070f8:	72646461 	rsbvc	r6, r4, #1627389952	; 0x61000000
a3e070fc:	20737365 	rsbcss	r7, r3, r5, ror #6
a3e07100:	7830203a 	ldmvcda	r0!, {r1, r3, r4, r5, sp}
a3e07104:	6c383025 	ldcvs	0, cr3, [r8], -#148
a3e07108:	20202078 	eorcs	r2, r0, r8, ror r0
a3e0710c:	6c617620 	stcvsl	6, cr7, [r1], -#128
a3e07110:	3a206575 	bcc	a46206ec <tftpTimeout+0x818bf4>
a3e07114:	25783020 	ldrcsb	r3, [r8, -#32]!
a3e07118:	786c3830 	stmvcda	ip!, {r4, r5, fp, ip, sp}^
a3e0711c:	0000000a 	andeq	r0, r0, sl
a3e07120:	4d434d09 	stcmil	13, cr4, [r3, -#36]
a3e07124:	09304d45 	ldmeqdb	r0!, {r0, r2, r6, r8, sl, fp, lr}
a3e07128:	72646461 	rsbvc	r6, r4, #1627389952	; 0x61000000
a3e0712c:	20737365 	rsbcss	r7, r3, r5, ror #6
a3e07130:	7830203a 	ldmvcda	r0!, {r1, r3, r4, r5, sp}
a3e07134:	6c383025 	ldcvs	0, cr3, [r8], -#148
a3e07138:	20202078 	eorcs	r2, r0, r8, ror r0
a3e0713c:	6c617620 	stcvsl	6, cr7, [r1], -#128
a3e07140:	3a206575 	bcc	a462071c <tftpTimeout+0x818c24>
a3e07144:	25783020 	ldrcsb	r3, [r8, -#32]!
a3e07148:	786c3830 	stmvcda	ip!, {r4, r5, fp, ip, sp}^
a3e0714c:	0000000a 	andeq	r0, r0, sl
a3e07150:	4d434d09 	stcmil	13, cr4, [r3, -#36]
a3e07154:	09314d45 	ldmeqdb	r1!, {r0, r2, r6, r8, sl, fp, lr}
a3e07158:	72646461 	rsbvc	r6, r4, #1627389952	; 0x61000000
a3e0715c:	20737365 	rsbcss	r7, r3, r5, ror #6
a3e07160:	7830203a 	ldmvcda	r0!, {r1, r3, r4, r5, sp}
a3e07164:	6c383025 	ldcvs	0, cr3, [r8], -#148
a3e07168:	20202078 	eorcs	r2, r0, r8, ror r0
a3e0716c:	6c617620 	stcvsl	6, cr7, [r1], -#128
a3e07170:	3a206575 	bcc	a462074c <tftpTimeout+0x818c54>
a3e07174:	25783020 	ldrcsb	r3, [r8, -#32]!
a3e07178:	786c3830 	stmvcda	ip!, {r4, r5, fp, ip, sp}^
a3e0717c:	0000000a 	andeq	r0, r0, sl
a3e07180:	41434d09 	cmpmi	r3, r9, lsl #26
a3e07184:	09305454 	ldmeqdb	r0!, {r2, r4, r6, sl, ip, lr}
a3e07188:	72646461 	rsbvc	r6, r4, #1627389952	; 0x61000000
a3e0718c:	20737365 	rsbcss	r7, r3, r5, ror #6
a3e07190:	7830203a 	ldmvcda	r0!, {r1, r3, r4, r5, sp}
a3e07194:	6c383025 	ldcvs	0, cr3, [r8], -#148
a3e07198:	20202078 	eorcs	r2, r0, r8, ror r0
a3e0719c:	6c617620 	stcvsl	6, cr7, [r1], -#128
a3e071a0:	3a206575 	bcc	a462077c <tftpTimeout+0x818c84>
a3e071a4:	25783020 	ldrcsb	r3, [r8, -#32]!
a3e071a8:	786c3830 	stmvcda	ip!, {r4, r5, fp, ip, sp}^
a3e071ac:	0000000a 	andeq	r0, r0, sl
a3e071b0:	41434d09 	cmpmi	r3, r9, lsl #26
a3e071b4:	09315454 	ldmeqdb	r1!, {r2, r4, r6, sl, ip, lr}
a3e071b8:	72646461 	rsbvc	r6, r4, #1627389952	; 0x61000000
a3e071bc:	20737365 	rsbcss	r7, r3, r5, ror #6
a3e071c0:	7830203a 	ldmvcda	r0!, {r1, r3, r4, r5, sp}
a3e071c4:	6c383025 	ldcvs	0, cr3, [r8], -#148
a3e071c8:	20202078 	eorcs	r2, r0, r8, ror r0
a3e071cc:	6c617620 	stcvsl	6, cr7, [r1], -#128
a3e071d0:	3a206575 	bcc	a46207ac <tftpTimeout+0x818cb4>
a3e071d4:	25783020 	ldrcsb	r3, [r8, -#32]!
a3e071d8:	786c3830 	stmvcda	ip!, {r4, r5, fp, ip, sp}^
a3e071dc:	0000000a 	andeq	r0, r0, sl
a3e071e0:	49434d09 	stmmidb	r3, {r0, r3, r8, sl, fp, lr}^
a3e071e4:	2020304f 	eorcs	r3, r0, pc, asr #32
a3e071e8:	64646109 	strvsbt	r6, [r4], -#265
a3e071ec:	73736572 	cmnvc	r3, #478150656	; 0x1c800000
a3e071f0:	30203a20 	eorcc	r3, r0, r0, lsr #20
a3e071f4:	38302578 	ldmccda	r0!, {r3, r4, r5, r6, r8, sl, sp}
a3e071f8:	2020786c 	eorcs	r7, r0, ip, ror #16
a3e071fc:	61762020 	cmnvs	r6, r0, lsr #32
a3e07200:	2065756c 	rsbcs	r7, r5, ip, ror #10
a3e07204:	7830203a 	ldmvcda	r0!, {r1, r3, r4, r5, sp}
a3e07208:	6c383025 	ldcvs	0, cr3, [r8], -#148
a3e0720c:	00000a78 	andeq	r0, r0, r8, ror sl
a3e07210:	49434d09 	stmmidb	r3, {r0, r3, r8, sl, fp, lr}^
a3e07214:	2020314f 	eorcs	r3, r0, pc, asr #2
a3e07218:	64646109 	strvsbt	r6, [r4], -#265
a3e0721c:	73736572 	cmnvc	r3, #478150656	; 0x1c800000
a3e07220:	30203a20 	eorcc	r3, r0, r0, lsr #20
a3e07224:	38302578 	ldmccda	r0!, {r3, r4, r5, r6, r8, sl, sp}
a3e07228:	2020786c 	eorcs	r7, r0, ip, ror #16
a3e0722c:	61762020 	cmnvs	r6, r0, lsr #32
a3e07230:	2065756c 	rsbcs	r7, r5, ip, ror #10
a3e07234:	7830203a 	ldmvcda	r0!, {r1, r3, r4, r5, sp}
a3e07238:	6c383025 	ldcvs	0, cr3, [r8], -#148
a3e0723c:	00000a78 	andeq	r0, r0, r8, ror sl
a3e07240:	4d444d09 	stcmil	13, cr4, [r4, -#36]
a3e07244:	09205352 	stmeqdb	r0!, {r1, r4, r6, r8, r9, ip, lr}
a3e07248:	72646461 	rsbvc	r6, r4, #1627389952	; 0x61000000
a3e0724c:	20737365 	rsbcss	r7, r3, r5, ror #6
a3e07250:	7830203a 	ldmvcda	r0!, {r1, r3, r4, r5, sp}
a3e07254:	6c383025 	ldcvs	0, cr3, [r8], -#148
a3e07258:	20202078 	eorcs	r2, r0, r8, ror r0
a3e0725c:	6c617620 	stcvsl	6, cr7, [r1], -#128
a3e07260:	3a206575 	bcc	a462083c <tftpTimeout+0x818d44>
a3e07264:	25783020 	ldrcsb	r3, [r8, -#32]!
a3e07268:	786c3830 	stmvcda	ip!, {r4, r5, fp, ip, sp}^
a3e0726c:	0000000a 	andeq	r0, r0, sl
a3e07270:	6142090a 	cmpvs	r2, sl, lsl #18
a3e07274:	706f2064 	rsbvc	r2, pc, r4, rrx
a3e07278:	6e6f6974 	mcrvs	9, 3, r6, cr15, cr4, {3}
a3e0727c:	73255b20 	teqvc	r5, #32768	; 0x8000
a3e07280:	00000a5d 	andeq	r0, r0, sp, asr sl
a3e07284:	6c655309 	stcvsl	3, cr5, [r5], -#36
a3e07288:	65746365 	ldrvsb	r6, [r4, -#869]!
a3e0728c:	6e492064 	cdpvs	0, 4, cr2, cr9, cr4, {3}
a3e07290:	3a096f66 	bcc	a4063030 <tftpTimeout+0x25b538>
a3e07294:	72656b20 	rsbvc	r6, r5, #32768	; 0x8000
a3e07298:	206c656e 	rsbcs	r6, ip, lr, ror #10
a3e0729c:	64255b20 	strvst	r5, [r5], -#2848
a3e072a0:	00000a5d 	andeq	r0, r0, sp, asr sl
a3e072a4:	3a090909 	bcc	a40496d0 <tftpTimeout+0x241bd8>
a3e072a8:	6d617220 	sfmvs	f7, 2, [r1, -#128]!
a3e072ac:	6b736964 	blvs	a5ae1844 <tftpTimeout+0x1cd9d4c>
a3e072b0:	64255b20 	strvst	r5, [r5], -#2848
a3e072b4:	00000a5d 	andeq	r0, r0, sp, asr sl
a3e072b8:	3a090909 	bcc	a40496e4 <tftpTimeout+0x241bec>
a3e072bc:	72737520 	rsbvcs	r7, r3, #134217728	; 0x8000000
a3e072c0:	20202020 	eorcs	r2, r0, r0, lsr #32
a3e072c4:	64255b20 	strvst	r5, [r5], -#2848
a3e072c8:	00000a5d 	andeq	r0, r0, sp, asr sl
a3e072cc:	6e6f6309 	cdpvs	3, 6, cr6, cr15, cr9, {0}
a3e072d0:	756e6974 	strvcb	r6, [lr, -#2420]!
a3e072d4:	45203f65 	strmi	r3, [r0, -#3941]!
a3e072d8:	7265746e 	rsbvc	r7, r5, #1845493760	; 0x6e000000
a3e072dc:	796e6120 	stmvcdb	lr!, {r5, r8, sp, lr}^
a3e072e0:	79656b20 	stmvcdb	r5!, {r5, r8, r9, fp, sp, lr}^
a3e072e4:	0000000a 	andeq	r0, r0, sl
a3e072e8:	30303030 	eorccs	r3, r0, r0, lsr r0
a3e072ec:	00000000 	andeq	r0, r0, r0
a3e072f0:	656c500a 	strvsb	r5, [ip, -#10]!
a3e072f4:	20657361 	rsbcs	r7, r5, r1, ror #6
a3e072f8:	65736572 	ldrvsb	r6, [r3, -#1394]!
a3e072fc:	726f2074 	rsbvc	r2, pc, #116	; 0x74
a3e07300:	6f6f6220 	swivs	0x006f6220
a3e07304:	21212074 	teqcs	r1, r4, ror r0
a3e07308:	0000000a 	andeq	r0, r0, sl
a3e0730c:	3d3d3d09 	ldccc	13, cr3, [sp, -#36]!
a3e07310:	3d3d3d3d 	ldccc	13, cr3, [sp, -#244]!
a3e07314:	3d3d3d3d 	ldccc	13, cr3, [sp, -#244]!
a3e07318:	3d3d3d3d 	ldccc	13, cr3, [sp, -#244]!
a3e0731c:	3d3d3d3d 	ldccc	13, cr3, [sp, -#244]!
a3e07320:	3d3d3d3d 	ldccc	13, cr3, [sp, -#244]!
a3e07324:	3d3d3d3d 	ldccc	13, cr3, [sp, -#244]!
a3e07328:	3d3d3d3d 	ldccc	13, cr3, [sp, -#244]!
a3e0732c:	0000000a 	andeq	r0, r0, sl
a3e07330:	48203d09 	stmmida	r0!, {r0, r3, r8, sl, fp, ip, sp}
a3e07334:	41424e41 	cmpmi	r2, r1, asr #28
a3e07338:	45204b43 	strmi	r4, [r0, -#2883]!
a3e0733c:	534f504d 	cmppl	pc, #77	; 0x4d
a3e07340:	2f532032 	swics	0x00532032
a3e07344:	4f442057 	swimi	0x00442057
a3e07348:	4f4c4e57 	swimi	0x004c4e57
a3e0734c:	3d204441 	stccc	4, cr4, [r0, -#260]!
a3e07350:	0000000a 	andeq	r0, r0, sl
a3e07354:	53203d09 	teqpl	r0, #576	; 0x240
a3e07358:	5520572f 	strpl	r5, [r0, -#1839]!
a3e0735c:	41524750 	cmpmi	r2, r0, asr r7
a3e07360:	43204547 	teqmi	r0, #297795584	; 0x11c00000
a3e07364:	4c504d4f 	mrrcmi	13, 4, r4, r0, cr15
a3e07368:	44455445 	strmib	r5, [r5], -#1093
a3e0736c:	20212120 	eorcs	r2, r1, r0, lsr #2
a3e07370:	3d202020 	stccc	0, cr2, [r0, -#128]!
a3e07374:	0000000a 	andeq	r0, r0, sl
a3e07378:	4e203d09 	cdpmi	13, 2, cr3, cr0, cr9, {0}
a3e0737c:	4320544f 	teqmi	r0, #1325400064	; 0x4f000000
a3e07380:	4c504d4f 	mrrcmi	13, 4, r4, r0, cr15
a3e07384:	44455445 	strmib	r5, [r5], -#1093
a3e07388:	20212120 	eorcs	r2, r1, r0, lsr #2
a3e0738c:	20454553 	subcs	r4, r5, r3, asr r5
a3e07390:	54415453 	strplb	r5, [r1], -#1107
a3e07394:	3d205355 	stccc	3, cr5, [r0, -#340]!
a3e07398:	0000000a 	andeq	r0, r0, sl
a3e0739c:	55203d09 	strpl	r3, [r0, -#3337]!
a3e073a0:	65676173 	strvsb	r6, [r7, -#371]!
a3e073a4:	753a2009 	ldrvc	r2, [sl, -#9]!
a3e073a8:	6f5b2070 	swivs	0x005b2070
a3e073ac:	205d7470 	subcss	r7, sp, r0, ror r4
a3e073b0:	616d5f70 	cmnvs	sp, r0, ror pc
a3e073b4:	5f732063 	swipl	0x00732063
a3e073b8:	3d63616d 	stfcce	f6, [r3, -#436]!
a3e073bc:	0000000a 	andeq	r0, r0, sl
a3e073c0:	4f203d09 	swimi	0x00203d09
a3e073c4:	6f697470 	swivs	0x00697470
a3e073c8:	093a736e 	ldmeqdb	sl!, {r1, r2, r3, r5, r6, r8, r9, ip, sp, lr}
a3e073cc:	20202009 	eorcs	r2, r0, r9
a3e073d0:	3d202020 	stccc	0, cr2, [r0, -#128]!
a3e073d4:	0000000a 	andeq	r0, r0, sl
a3e073d8:	20203d09 	eorcs	r3, r0, r9, lsl #26
a3e073dc:	206b2d20 	rsbcs	r2, fp, r0, lsr #26
a3e073e0:	6e72656b 	cdpvs	5, 7, cr6, cr2, cr11, {3}
a3e073e4:	20206c65 	eorcs	r6, r0, r5, ror #24
a3e073e8:	6d497a28 	stcvsl	10, cr7, [r9, -#160]
a3e073ec:	29656761 	stmcsdb	r5!, {r0, r5, r6, r8, r9, sl, sp, lr}^
a3e073f0:	20202020 	eorcs	r2, r0, r0, lsr #32
a3e073f4:	3d202020 	stccc	0, cr2, [r0, -#128]!
a3e073f8:	0000000a 	andeq	r0, r0, sl
a3e073fc:	20203d09 	eorcs	r3, r0, r9, lsl #26
a3e07400:	20722d20 	rsbcss	r2, r2, r0, lsr #26
a3e07404:	646d6172 	strvsbt	r6, [sp], -#370
a3e07408:	206b7369 	rsbcs	r7, fp, r9, ror #6
a3e0740c:	6d617228 	sfmvs	f7, 2, [r1, -#160]!
a3e07410:	6b736964 	blvs	a5ae19a8 <tftpTimeout+0x1cd9eb0>
a3e07414:	672e3631 	undefined
a3e07418:	3d20297a 	stccc	9, cr2, [r0, -#488]!
a3e0741c:	0000000a 	andeq	r0, r0, sl
a3e07420:	20203d09 	eorcs	r3, r0, r9, lsl #26
a3e07424:	20752d20 	rsbcss	r2, r5, r0, lsr #26
a3e07428:	20727375 	rsbcss	r7, r2, r5, ror r3
a3e0742c:	20202020 	eorcs	r2, r0, r0, lsr #32
a3e07430:	6f747128 	swivs	0x00747128
a3e07434:	2e616970 	mcrcs	9, 3, r6, cr1, cr0, {3}
a3e07438:	7366666a 	cmnvc	r6, #111149056	; 0x6a00000
a3e0743c:	3d202029 	stccc	0, cr2, [r0, -#164]!
a3e07440:	0000000a 	andeq	r0, r0, sl
a3e07444:	20203d09 	eorcs	r3, r0, r9, lsl #26
a3e07448:	20612d20 	rsbcs	r2, r1, r0, lsr #26
a3e0744c:	096c6c61 	stmeqdb	ip!, {r0, r5, r6, sl, fp, sp, lr}^
a3e07450:	20202020 	eorcs	r2, r0, r0, lsr #32
a3e07454:	20202009 	eorcs	r2, r0, r9
a3e07458:	3d202020 	stccc	0, cr2, [r0, -#128]!
a3e0745c:	0000000a 	andeq	r0, r0, sl
a3e07460:	45203d09 	strmi	r3, [r0, -#3337]!
a3e07464:	706d6178 	rsbvc	r6, sp, r8, ror r1
a3e07468:	753a656c 	ldrvc	r6, [sl, -#1388]!
a3e0746c:	2d202070 	stccs	0, cr2, [r0, -#448]!
a3e07470:	20206b72 	eorcs	r6, r0, r2, ror fp
a3e07474:	61303020 	teqvs	r0, r0, lsr #32
a3e07478:	30302037 	eorccs	r2, r0, r7, lsr r0
a3e0747c:	3d203861 	stccc	8, cr3, [r0, -#388]!
a3e07480:	0000000a 	andeq	r0, r0, sl
a3e07484:	00204b4f 	eoreq	r4, r0, pc, asr #22
a3e07488:	004b4f4e 	subeq	r4, fp, lr, asr #30
a3e0748c:	20203d09 	eorcs	r3, r0, r9, lsl #26
a3e07490:	20572f53 	subcss	r2, r7, r3, asr pc
a3e07494:	4e574f44 	cdpmi	15, 5, cr4, cr7, cr4, {2}
a3e07498:	44414f4c 	strmib	r4, [r1], -#3916
a3e0749c:	464e4920 	strmib	r4, [lr], -r0, lsr #18
a3e074a0:	414d524f 	cmpmi	sp, pc, asr #4
a3e074a4:	4e4f4954 	mcrmi	9, 2, r4, cr15, cr4, {2}
a3e074a8:	3d202020 	stccc	0, cr2, [r0, -#128]!
a3e074ac:	0000000a 	andeq	r0, r0, sl
a3e074b0:	42203d09 	eormi	r3, r0, #576	; 0x240
a3e074b4:	50544f4f 	subpls	r4, r4, pc, asr #30
a3e074b8:	3a090909 	bcc	a40498e4 <tftpTimeout+0x241dec>
a3e074bc:	20732520 	rsbcss	r2, r3, r0, lsr #10
a3e074c0:	00000a3d 	andeq	r0, r0, sp, lsr sl
a3e074c4:	54203d09 	strplt	r3, [r0], -#3337
a3e074c8:	20505446 	subcss	r5, r0, r6, asr #8
a3e074cc:	4e52454b 	cdpmi	5, 5, cr4, cr2, cr11, {2}
a3e074d0:	09094c45 	stmeqdb	r9, {r0, r2, r6, sl, fp, lr}
a3e074d4:	7325203a 	teqvc	r5, #58	; 0x3a
a3e074d8:	000a3d20 	andeq	r3, sl, r0, lsr #26
a3e074dc:	54203d09 	strplt	r3, [r0], -#3337
a3e074e0:	20505446 	subcss	r5, r0, r6, asr #8
a3e074e4:	444d4152 	strmib	r4, [sp], -#338
a3e074e8:	096b5349 	stmeqdb	fp!, {r0, r3, r6, r8, r9, ip, lr}^
a3e074ec:	25203a09 	strcs	r3, [r0, -#2569]!
a3e074f0:	0a3d2073 	beq	a4d4f6c4 <tftpTimeout+0xf47bcc>
a3e074f4:	00000000 	andeq	r0, r0, r0
a3e074f8:	54203d09 	strplt	r3, [r0], -#3337
a3e074fc:	20505446 	subcss	r5, r0, r6, asr #8
a3e07500:	09525355 	ldmeqdb	r2, {r0, r2, r4, r6, r8, r9, ip, lr}^
a3e07504:	25203a09 	strcs	r3, [r0, -#2569]!
a3e07508:	0a3d2073 	beq	a4d4f6dc <tftpTimeout+0xf47be4>
a3e0750c:	00000000 	andeq	r0, r0, r0
a3e07510:	46203d09 	strmit	r3, [r0], -r9, lsl #26
a3e07514:	4853414c 	ldmmida	r3, {r2, r3, r6, r8, lr}^
a3e07518:	52454b20 	subpl	r4, r5, #32768	; 0x8000
a3e0751c:	094c454e 	stmeqdb	ip, {r1, r2, r3, r6, r8, sl, lr}^
a3e07520:	25203a09 	strcs	r3, [r0, -#2569]!
a3e07524:	0a3d2073 	beq	a4d4f6f8 <tftpTimeout+0xf47c00>
a3e07528:	00000000 	andeq	r0, r0, r0
a3e0752c:	46203d09 	strmit	r3, [r0], -r9, lsl #26
a3e07530:	4853414c 	ldmmida	r3, {r2, r3, r6, r8, lr}^
a3e07534:	4d415220 	sfmmi	f5, 2, [r1, -#128]
a3e07538:	4b534944 	blmi	a52d9a50 <tftpTimeout+0x14d1f58>
a3e0753c:	203a0909 	eorcss	r0, sl, r9, lsl #18
a3e07540:	3d207325 	stccc	3, cr7, [r0, -#148]!
a3e07544:	0000000a 	andeq	r0, r0, sl
a3e07548:	46203d09 	strmit	r3, [r0], -r9, lsl #26
a3e0754c:	4853414c 	ldmmida	r3, {r2, r3, r6, r8, lr}^
a3e07550:	52535520 	subpls	r5, r3, #134217728	; 0x8000000
a3e07554:	203a0909 	eorcss	r0, sl, r9, lsl #18
a3e07558:	3d207325 	stccc	3, cr7, [r0, -#148]!
a3e0755c:	0000000a 	andeq	r0, r0, sl
a3e07560:	4d203d09 	stcmi	13, cr3, [r0, -#36]!
a3e07564:	57204341 	strpl	r4, [r0, -r1, asr #6]!
a3e07568:	45544952 	ldrmib	r4, [r4, -#2386]
a3e0756c:	203a0909 	eorcss	r0, sl, r9, lsl #18
a3e07570:	3d207325 	stccc	3, cr7, [r0, -#148]!
a3e07574:	0000000a 	andeq	r0, r0, sl
a3e07578:	616d497a 	cmnvs	sp, sl, ror r9
a3e0757c:	00006567 	andeq	r6, r0, r7, ror #10
a3e07580:	646d6172 	strvsbt	r6, [sp], -#370
a3e07584:	316b7369 	cmncc	fp, r9, ror #6
a3e07588:	7a672e36 	bvc	a57d2e68 <tftpTimeout+0x19cb370>
a3e0758c:	00000000 	andeq	r0, r0, r0
a3e07590:	706f7471 	rsbvc	r7, pc, r1, ror r4
a3e07594:	6a2e6169 	bvs	a499fb40 <tftpTimeout+0xb98048>
a3e07598:	00736666 	rsbeqs	r6, r3, r6, ror #12
a3e0759c:	62303030 	eorvss	r3, r0, #48	; 0x30
a3e075a0:	33303861 	teqcc	r0, #6356992	; 0x610000
a3e075a4:	00000000 	andeq	r0, r0, r0
a3e075a8:	68540a0a 	ldmvsda	r4, {r1, r3, r9, fp}^
a3e075ac:	69207369 	stmvsdb	r0!, {r0, r3, r5, r6, r8, r9, ip, sp, lr}
a3e075b0:	4d452073 	stcmil	0, cr2, [r5, -#460]
a3e075b4:	5f534f50 	swipl	0x00534f50
a3e075b8:	746f6f62 	strvcbt	r6, [pc], #f62	; a3e075c0 <version+0x1d30>
a3e075bc:	72657620 	rsbvc	r7, r5, #33554432	; 0x2000000
a3e075c0:	6e6f6973 	mcrvs	9, 3, r6, cr15, cr3, {3}
a3e075c4:	302e3120 	eorcc	r3, lr, r0, lsr #2
a3e075c8:	0000000a 	andeq	r0, r0, sl
a3e075cc:	73696854 	cmnvc	r9, #5505024	; 0x540000
a3e075d0:	20736920 	rsbcss	r6, r3, r0, lsr #18
a3e075d4:	65657266 	strvsb	r7, [r5, -#614]!
a3e075d8:	666f7320 	strvsbt	r7, [pc], -r0, lsr #6
a3e075dc:	72617774 	rsbvc	r7, r1, #30408704	; 0x1d00000
a3e075e0:	61202c65 	teqvs	r0, r5, ror #24
a3e075e4:	7520646e 	strvc	r6, [r0, -#1134]!
a3e075e8:	7265646e 	rsbvc	r6, r5, #1845493760	; 0x6e000000
a3e075ec:	47206465 	strmi	r6, [r0, -r5, ror #8]!
a3e075f0:	4720554e 	strmi	r5, [r0, -lr, asr #10]!
a3e075f4:	6c204c50 	stcvs	12, cr4, [r0], -#320
a3e075f8:	6e656369 	cdpvs	3, 6, cr6, cr5, cr9, {3}
a3e075fc:	000a6573 	andeq	r6, sl, r3, ror r5
a3e07600:	706f430a 	rsbvc	r4, pc, sl, lsl #6
a3e07604:	656b2079 	strvsb	r2, [fp, -#121]!
a3e07608:	6c656e72 	stcvsl	14, cr6, [r5], -#456
a3e0760c:	6f726620 	swivs	0x00726620
a3e07610:	4f52206d 	swimi	0x0052206d
a3e07614:	6f74204d 	swivs	0x0074204d
a3e07618:	4d415220 	sfmmi	f5, 2, [r1, -#128]
a3e0761c:	00000020 	andeq	r0, r0, r0, lsr #32
a3e07620:	706f430a 	rsbvc	r4, pc, sl, lsl #6
a3e07624:	61722079 	cmnvs	r2, r9, ror r0
a3e07628:	7369646d 	cmnvc	r9, #1828716544	; 0x6d000000
a3e0762c:	7266206b 	rsbvc	r2, r6, #107	; 0x6b
a3e07630:	52206d6f 	eorpl	r6, r0, #7104	; 0x1bc0
a3e07634:	74204d4f 	strvct	r4, [r0], -#3407
a3e07638:	4152206f 	cmpmi	r2, pc, rrx
a3e0763c:	0000204d 	andeq	r2, r0, sp, asr #32
a3e07640:	7475410a 	ldrvcbt	r4, [r5], -#266
a3e07644:	6f6f626f 	swivs	0x006f626f
a3e07648:	6e692074 	mcrvs	0, 3, r2, cr9, cr4, {3}
a3e0764c:	6f727020 	swivs	0x00727020
a3e07650:	73657267 	cmnvc	r5, #1879048198	; 0x70000006
a3e07654:	70202c73 	eorvc	r2, r0, r3, ror ip
a3e07658:	73736572 	cmnvc	r3, #478150656	; 0x1c800000
a3e0765c:	796e6120 	stmvcdb	lr!, {r5, r8, sp, lr}^
a3e07660:	79656b20 	stmvcdb	r5!, {r5, r8, r9, fp, sp, lr}^
a3e07664:	206f7420 	rsbcs	r7, pc, r0, lsr #8
a3e07668:	706f7473 	rsbvc	r7, pc, r3, ror r4
a3e0766c:	0020202e 	eoreq	r2, r0, lr, lsr #32
a3e07670:	00000008 	andeq	r0, r0, r8
a3e07674:	00006425 	andeq	r6, r0, r5, lsr #8
a3e07678:	2a090a0a 	bcs	a4049ea8 <tftpTimeout+0x2423b0>
a3e0767c:	70795420 	rsbvcs	r5, r9, r0, lsr #8
a3e07680:	68272065 	stmvsda	r7!, {r0, r2, r5, r6, sp}
a3e07684:	27706c65 	ldrcsb	r6, [r0, -r5, ror #24]!
a3e07688:	206f7420 	rsbcs	r7, pc, r0, lsr #8
a3e0768c:	20746567 	rsbcss	r6, r4, r7, ror #10
a3e07690:	696c2061 	stmvsdb	ip!, {r0, r5, r6, sp}^
a3e07694:	6f207473 	swivs	0x00207473
a3e07698:	6f632066 	swivs	0x00632066
a3e0769c:	6e616d6d 	cdpvs	13, 6, cr6, cr1, cr13, {3}
a3e076a0:	2a207364 	bcs	a4624438 <tftpTimeout+0x81c940>
a3e076a4:	00000000 	andeq	r0, r0, r0
a3e076a8:	504d450a 	subpl	r4, sp, sl, lsl #10
a3e076ac:	2320534f 	teqcs	r0, #1006632961	; 0x3c000001
a3e076b0:	00000020 	andeq	r0, r0, r0, lsr #32
a3e076b4:	746f6f62 	strvcbt	r6, [pc], #f62	; a3e076bc <version+0x1e2c>
a3e076b8:	00000000 	andeq	r0, r0, r0
a3e076bc:	65736572 	ldrvsb	r6, [r3, -#1394]!
a3e076c0:	00000074 	andeq	r0, r0, r4, ror r0
a3e076c4:	746f6f62 	strvcbt	r6, [pc], #f62	; a3e076cc <version+0x1e3c>
a3e076c8:	00000070 	andeq	r0, r0, r0, ror r0
a3e076cc:	69746573 	ldmvsdb	r4!, {r0, r1, r4, r5, r6, r8, sl, sp, lr}^
a3e076d0:	00000070 	andeq	r0, r0, r0, ror r0
a3e076d4:	7763616d 	strvcb	r6, [r3, -sp, ror #2]!
a3e076d8:	65746972 	ldrvsb	r6, [r4, -#2418]!
a3e076dc:	00000000 	andeq	r0, r0, r0
a3e076e0:	70746674 	rsbvcs	r6, r4, r4, ror r6
a3e076e4:	00000000 	andeq	r0, r0, r0
a3e076e8:	6e776f64 	cdpvs	15, 7, cr6, cr7, cr4, {3}
a3e076ec:	64616f6c 	strvsbt	r6, [r1], -#3948
a3e076f0:	00000000 	andeq	r0, r0, r0
a3e076f4:	73616c66 	cmnvc	r1, #26112	; 0x6600
a3e076f8:	00000068 	andeq	r0, r0, r8, rrx
a3e076fc:	73617265 	cmnvc	r1, #1342177286	; 0x50000006
a3e07700:	00000065 	andeq	r0, r0, r5, rrx
a3e07704:	706c6568 	rsbvc	r6, ip, r8, ror #10
a3e07708:	00000000 	andeq	r0, r0, r0
a3e0770c:	64616572 	strvsbt	r6, [r1], -#1394
a3e07710:	00000000 	andeq	r0, r0, r0
a3e07714:	74697277 	strvcbt	r7, [r9], -#631
a3e07718:	00000065 	andeq	r0, r0, r5, rrx
a3e0771c:	74617473 	strvcbt	r7, [r1], -#1139
a3e07720:	00007375 	andeq	r7, r0, r5, ror r3
a3e07724:	74736574 	ldrvcbt	r6, [r3], -#1396
a3e07728:	00000000 	andeq	r0, r0, r0
a3e0772c:	72677075 	rsbvc	r7, r7, #117	; 0x75
a3e07730:	00656461 	rsbeq	r6, r5, r1, ror #8
a3e07734:	00007075 	andeq	r7, r0, r5, ror r0
a3e07738:	64614209 	strvsbt	r4, [r1], -#521
a3e0773c:	6d6f6320 	stcvsl	3, cr6, [pc, -#128]!
a3e07740:	646e616d 	strvsbt	r6, [lr], -#365
a3e07744:	6e696c20 	cdpvs	12, 6, cr6, cr9, cr0, {1}
a3e07748:	2e2e2e65 	cdpcs	14, 2, cr2, cr14, cr5, {3}
a3e0774c:	0000000a 	andeq	r0, r0, sl
a3e07750:	6d6f4309 	stcvsl	3, cr4, [pc, -#36]!
a3e07754:	646e616d 	strvsbt	r6, [lr], -#365
a3e07758:	69616620 	stmvsdb	r1!, {r5, r9, sl, sp, lr}^
a3e0775c:	2e64656c 	cdpcs	5, 6, cr6, cr4, cr12, {3}
a3e07760:	000a2e2e 	andeq	r2, sl, lr, lsr #28
a3e07764:	6174530a 	cmnvs	r4, sl, lsl #6
a3e07768:	6e697472 	mcrvs	4, 3, r7, cr9, cr2, {3}
a3e0776c:	656b2067 	strvsb	r2, [fp, -#103]!
a3e07770:	6c656e72 	stcvsl	14, cr6, [r5], -#456
a3e07774:	0a2e2e2e 	beq	a4993034 <tftpTimeout+0xb8b53c>
a3e07778:	0000000a 	andeq	r0, r0, sl
a3e0777c:	72654b0a 	rsbvc	r4, r5, #10240	; 0x2800
a3e07780:	206c656e 	rsbcs	r6, ip, lr, ror #10
a3e07784:	6c696166 	stfvse	f6, [r9], -#408
a3e07788:	2e2e6465 	cdpcs	4, 2, cr6, cr14, cr5, {3}
a3e0778c:	000a0a2e 	andeq	r0, sl, lr, lsr #20
Disassembly of section .data:

a3e07790 <clientEther>:
a3e07790:	00000000 	andeq	r0, r0, r0
	...

a3e07796 <smc_mac_addr>:
a3e07796:	00000000 	andeq	r0, r0, r0
	...

a3e0779c <hostEther>:
a3e0779c:	ffffffff 	swinv	0x00ffffff
a3e077a0:	ffffffff 	swinv	0x00ffffff

a3e077a2 <broadcast>:
a3e077a2:	ffffffff 	swinv	0x00ffffff
a3e077a6:	0000ffff 	streqd	pc, [r0], -pc

a3e077a8 <hostIP>:
a3e077a8:	00000000 	andeq	r0, r0, r0

a3e077ac <clientIP>:
a3e077ac:	00000000 	andeq	r0, r0, r0

a3e077b0 <protocol>:
a3e077b0:	00000000 	andeq	r0, r0, r0

a3e077b4 <bootps>:
a3e077b4:	00440043 	subeq	r0, r4, r3, asr #32

a3e077b6 <bootpc>:
a3e077b6:	ffff0044 	swinv	0x00ff0044

a3e077b8 <broadcastEther>:
a3e077b8:	ffffffff 	swinv	0x00ffffff
a3e077bc:	0000ffff 	streqd	pc, [r0], -pc

a3e077c0 <broadcastIP>:
a3e077c0:	ffffffff 	swinv	0x00ffffff

a3e077c4 <noIP>:
a3e077c4:	00000000 	andeq	r0, r0, r0

a3e077c8 <tftpState>:
	...

a3e077ca <tftpBlock>:
	...

a3e077cc <tftpLastBlock>:
a3e077cc:	00000000 	andeq	r0, r0, r0

a3e077d0 <loadAddr>:
a3e077d0:	00000000 	andeq	r0, r0, r0

a3e077d4 <tftpPort>:
a3e077d4:	00000045 	andeq	r0, r0, r5, asr #32

a3e077d6 <tftpHostPort>:
	...

a3e077d8 <tftpClientPort>:
a3e077d8:	00001e61 	andeq	r1, r0, r1, ror #28

a3e077dc <dmac>:
a3e077dc:	a3e0779c 	mvnge	r7, #40894464	; 0x2700000
